TN:
SF:/home/gius/git/llama-cli/build/_deps/cpp_linenoise-src/linenoise.hpp
FN:1199,1208,_ZN9linenoiseL17unicodeIsWideCharEm
FN:1412,1421,_ZN9linenoise22unicodeIsCombiningCharEm
FN:1425,1432,_ZN9linenoise22unicodePrevUTF8CharLenEPci
FN:1436,1444,_ZN9linenoise18unicodeUTF8CharLenEPcii
FN:1448,1482,_ZN9linenoise26unicodeUTF8CharToCodePointEPKciPi
FN:1486,1503,_ZN9linenoise18unicodeGraphemeLenEPcii
FN:1507,1523,_ZN9linenoise22unicodePrevGraphemeLenEPci
FN:1525,1541,_ZN9linenoise12isAnsiEscapeEPKciPi
FN:1545,1568,_ZN9linenoise16unicodeColumnPosEPKci
FN:1572,1606,_ZN9linenoise28unicodeColumnPosForMultiLineEPciiii
FN:1610,1634,_ZN9linenoise19unicodeReadUTF8CharEiPcPi
FN:1640,1660,_ZN9linenoise17isUnsupportedTermEv
FN:1650,1650,_ZZN9linenoise17isUnsupportedTermEvENKUlhE_clEh
FN:1654,1654,_ZZN9linenoise17isUnsupportedTermEvENKUlhE0_clEh
FN:1663,1729,_ZN9linenoise13enableRawModeEi
FN:1731,1743,_ZN9linenoise14disableRawModeEi
FN:1748,1768,_ZN9linenoise17getCursorPositionEii
FN:1772,1810,_ZN9linenoise10getColumnsEii
FN:1813,1817,_ZN9linenoise20linenoiseClearScreenEv
FN:1836,1839,_ZN9linenoise13linenoiseBeepEv
FN:1849,1913,_ZN9linenoise14linenoiseState12completeLineEPcPi
FN:1921,1953,_ZN9linenoise14linenoiseState17refreshSingleLineEv
FN:1959,2035,_ZN9linenoise14linenoiseState16refreshMultiLineEv
FN:2039,2046,_ZN9linenoise14linenoiseState11RefreshLineEv
FN:2052,2052,_ZN9linenoise14linenoiseState9SetPromptEPKc
FN:2053,2053,_ZN9linenoise14linenoiseState9SetPromptERNSt7__cxx1112basic_stringIcSt11char_traitsIcESaIcEEE
FN:2058,2082,_ZN9linenoise14linenoiseState10EditInsertEPKci
FN:2085,2090,_ZN9linenoise14linenoiseState12EditMoveLeftEv
FN:2093,2098,_ZN9linenoise14linenoiseState13EditMoveRightEv
FN:2101,2106,_ZN9linenoise14linenoiseState12EditMoveHomeEv
FN:2109,2114,_ZN9linenoise14linenoiseState11EditMoveEndEv
FN:2120,2139,_ZN9linenoise14linenoiseState15EditHistoryNextEi
FN:2143,2151,_ZN9linenoise14linenoiseState10EditDeleteEv
FN:2154,2163,_ZN9linenoise14linenoiseState13EditBackspaceEv
FN:2167,2179,_ZN9linenoise14linenoiseState18EditDeletePrevWordEv
FN:2189,2349,_ZN9linenoise14linenoiseState4EditEv
FN:2353,2394,_ZN9linenoise14linenoiseState3RawERNSt7__cxx1112basic_stringIcSt11char_traitsIcESaIcEEE
FN:2396,2408,_ZN9linenoise14linenoiseStateC2EPKcii
FN:2418,2429,_ZN9linenoise14linenoiseState8ReadlineERNSt7__cxx1112basic_stringIcSt11char_traitsIcESaIcEEE
FN:2445,2452,_ZN9linenoise15linenoiseAtExitEv
FN:2461,2474,_ZN9linenoise14linenoiseState10AddHistoryEPKc
FN:2532,2536,_ZN9linenoise10AddHistoryEPKc
FN:2557,2562,_ZN9linenoise8ReadlineEPKcRNSt7__cxx1112basic_stringIcSt11char_traitsIcESaIcEEE
FNDA:0,_ZN9linenoiseL17unicodeIsWideCharEm
FNDA:0,_ZN9linenoise22unicodeIsCombiningCharEm
FNDA:0,_ZN9linenoise22unicodePrevUTF8CharLenEPci
FNDA:0,_ZN9linenoise18unicodeUTF8CharLenEPcii
FNDA:0,_ZN9linenoise26unicodeUTF8CharToCodePointEPKciPi
FNDA:0,_ZN9linenoise18unicodeGraphemeLenEPcii
FNDA:0,_ZN9linenoise22unicodePrevGraphemeLenEPci
FNDA:0,_ZN9linenoise12isAnsiEscapeEPKciPi
FNDA:0,_ZN9linenoise16unicodeColumnPosEPKci
FNDA:0,_ZN9linenoise28unicodeColumnPosForMultiLineEPciiii
FNDA:0,_ZN9linenoise19unicodeReadUTF8CharEiPcPi
FNDA:0,_ZN9linenoise17isUnsupportedTermEv
FNDA:0,_ZZN9linenoise17isUnsupportedTermEvENKUlhE_clEh
FNDA:0,_ZZN9linenoise17isUnsupportedTermEvENKUlhE0_clEh
FNDA:0,_ZN9linenoise13enableRawModeEi
FNDA:0,_ZN9linenoise14disableRawModeEi
FNDA:0,_ZN9linenoise17getCursorPositionEii
FNDA:0,_ZN9linenoise10getColumnsEii
FNDA:0,_ZN9linenoise20linenoiseClearScreenEv
FNDA:0,_ZN9linenoise13linenoiseBeepEv
FNDA:0,_ZN9linenoise14linenoiseState12completeLineEPcPi
FNDA:0,_ZN9linenoise14linenoiseState17refreshSingleLineEv
FNDA:0,_ZN9linenoise14linenoiseState16refreshMultiLineEv
FNDA:0,_ZN9linenoise14linenoiseState11RefreshLineEv
FNDA:0,_ZN9linenoise14linenoiseState9SetPromptEPKc
FNDA:0,_ZN9linenoise14linenoiseState9SetPromptERNSt7__cxx1112basic_stringIcSt11char_traitsIcESaIcEEE
FNDA:0,_ZN9linenoise14linenoiseState10EditInsertEPKci
FNDA:0,_ZN9linenoise14linenoiseState12EditMoveLeftEv
FNDA:0,_ZN9linenoise14linenoiseState13EditMoveRightEv
FNDA:0,_ZN9linenoise14linenoiseState12EditMoveHomeEv
FNDA:0,_ZN9linenoise14linenoiseState11EditMoveEndEv
FNDA:0,_ZN9linenoise14linenoiseState15EditHistoryNextEi
FNDA:0,_ZN9linenoise14linenoiseState10EditDeleteEv
FNDA:0,_ZN9linenoise14linenoiseState13EditBackspaceEv
FNDA:0,_ZN9linenoise14linenoiseState18EditDeletePrevWordEv
FNDA:0,_ZN9linenoise14linenoiseState4EditEv
FNDA:0,_ZN9linenoise14linenoiseState3RawERNSt7__cxx1112basic_stringIcSt11char_traitsIcESaIcEEE
FNDA:0,_ZN9linenoise14linenoiseStateC2EPKcii
FNDA:0,_ZN9linenoise14linenoiseState8ReadlineERNSt7__cxx1112basic_stringIcSt11char_traitsIcESaIcEEE
FNDA:0,_ZN9linenoise15linenoiseAtExitEv
FNDA:0,_ZN9linenoise14linenoiseState10AddHistoryEPKc
FNDA:0,_ZN9linenoise10AddHistoryEPKc
FNDA:0,_ZN9linenoise8ReadlineEPKcRNSt7__cxx1112basic_stringIcSt11char_traitsIcESaIcEEE
FNF:43
FNH:0
DA:1199,0
DA:1202,0
DA:1203,0
DA:1204,0
DA:1207,0
DA:1412,0
DA:1415,0
DA:1416,0
DA:1417,0
DA:1420,0
DA:1425,0
DA:1427,0
DA:1428,0
DA:1429,0
DA:1431,0
DA:1436,0
DA:1438,0
DA:1439,0
DA:1440,0
DA:1441,0
DA:1442,0
DA:1443,0
DA:1448,0
DA:1453,0
DA:1454,0
DA:1455,0
DA:1456,0
DA:1457,0
DA:1458,0
DA:1459,0
DA:1460,0
DA:1461,0
DA:1462,0
DA:1464,0
DA:1465,0
DA:1466,0
DA:1467,0
DA:1468,0
DA:1469,0
DA:1471,0
DA:1472,0
DA:1473,0
DA:1474,0
DA:1475,0
DA:1476,0
DA:1477,0
DA:1481,0
DA:1486,0
DA:1488,0
DA:1489,0
DA:1491,0
DA:1492,0
DA:1493,0
DA:1494,0
DA:1495,0
DA:1496,0
DA:1497,0
DA:1498,0
DA:1500,0
DA:1502,0
DA:1507,0
DA:1509,0
DA:1510,0
DA:1512,0
DA:1513,0
DA:1514,0
DA:1515,0
DA:1516,0
DA:1517,0
DA:1518,0
DA:1519,0
DA:1522,0
DA:1525,0
DA:1527,0
DA:1528,0
DA:1529,0
DA:1530,0
DA:1531,0
DA:1535,0
DA:1536,0
DA:1540,0
DA:1545,0
DA:1547,0
DA:1549,0
DA:1550,0
DA:1552,0
DA:1553,0
DA:1554,0
DA:1557,0
DA:1558,0
DA:1560,0
DA:1561,0
DA:1564,0
DA:1567,0
DA:1572,0
DA:1574,0
DA:1575,0
DA:1577,0
DA:1578,0
DA:1579,0
DA:1580,0
DA:1582,0
DA:1583,0
DA:1584,0
DA:1587,0
DA:1588,0
DA:1589,0
DA:1590,0
DA:1591,0
DA:1592,0
DA:1594,0
DA:1597,0
DA:1598,0
DA:1601,0
DA:1602,0
DA:1605,0
DA:1610,0
DA:1612,0
DA:1614,0
DA:1616,0
DA:1618,0
DA:1620,0
DA:1621,0
DA:1622,0
DA:1623,0
DA:1624,0
DA:1625,0
DA:1626,0
DA:1627,0
DA:1628,0
DA:1630,0
DA:1633,0
DA:1640,0
DA:1643,0
DA:1646,0
DA:1648,0
DA:1650,0
DA:1651,0
DA:1652,0
DA:1654,0
DA:1655,0
DA:1656,0
DA:1657,0
DA:1659,0
DA:1660,0
DA:1663,0
DA:1667,0
DA:1668,0
DA:1669,0
DA:1670,0
DA:1672,0
DA:1674,0
DA:1677,0
DA:1682,0
DA:1685,0
DA:1688,0
DA:1691,0
DA:1692,0
DA:1724,0
DA:1726,0
DA:1727,0
DA:1728,0
DA:1731,0
DA:1740,0
DA:1741,0
DA:1743,0
DA:1748,0
DA:1751,0
DA:1754,0
DA:1757,0
DA:1758,0
DA:1759,0
DA:1760,0
DA:1762,0
DA:1765,0
DA:1766,0
DA:1767,0
DA:1772,0
DA:1781,0
DA:1786,0
DA:1787,0
DA:1790,0
DA:1791,0
DA:1792,0
DA:1795,0
DA:1797,0
DA:1798,0
DA:1802,0
DA:1804,0
DA:1807,0
DA:1808,0
DA:1813,0
DA:1814,0
DA:1817,0
DA:1836,0
DA:1837,0
DA:1838,0
DA:1839,0
DA:1849,0
DA:1850,0
DA:1851,0
DA:1852,0
DA:1854,0
DA:1855,0
DA:1856,0
DA:1858,0
DA:1860,0
DA:1862,0
DA:1863,0
DA:1864,0
DA:1865,0
DA:1866,0
DA:1867,0
DA:1868,0
DA:1869,0
DA:1870,0
DA:1871,0
DA:1873,0
DA:1883,0
DA:1885,0
DA:1886,0
DA:1887,0
DA:1890,0
DA:1891,0
DA:1892,0
DA:1893,0
DA:1894,0
DA:1895,0
DA:1897,0
DA:1898,0
DA:1899,0
DA:1900,0
DA:1902,0
DA:1903,0
DA:1904,0
DA:1906,0
DA:1907,0
DA:1912,0
DA:1913,0
DA:1921,0
DA:1923,0
DA:1924,0
DA:1925,0
DA:1927,0
DA:1928,0
DA:1930,0
DA:1931,0
DA:1932,0
DA:1933,0
DA:1934,0
DA:1936,0
DA:1937,0
DA:1941,0
DA:1942,0
DA:1944,0
DA:1945,0
DA:1947,0
DA:1948,0
DA:1950,0
DA:1951,0
DA:1952,0
DA:1953,0
DA:1959,0
DA:1960,0
DA:1961,0
DA:1964,0
DA:1965,0
DA:1967,0
DA:1968,0
DA:1971,0
DA:1972,0
DA:1973,0
DA:1976,0
DA:1980,0
DA:1981,0
DA:1982,0
DA:1986,0
DA:1987,0
DA:1988,0
DA:1992,0
DA:1993,0
DA:1996,0
DA:1997,0
DA:2000,0
DA:2004,0
DA:2005,0
DA:2006,0
DA:2008,0
DA:2009,0
DA:2010,0
DA:2011,0
DA:2012,0
DA:2016,0
DA:2019,0
DA:2020,0
DA:2021,0
DA:2025,0
DA:2026,0
DA:2027,0
DA:2029,0
DA:2030,0
DA:2032,0
DA:2034,0
DA:2035,0
DA:2039,0
DA:2040,0
DA:2041,0
DA:2042,0
DA:2044,0
DA:2045,0
DA:2046,0
DA:2052,0
DA:2053,0
DA:2058,0
DA:2059,0
DA:2060,0
DA:2061,0
DA:2062,0
DA:2063,0
DA:2064,0
DA:2065,0
DA:2068,0
DA:2070,0
DA:2073,0
DA:2074,0
DA:2075,0
DA:2076,0
DA:2077,0
DA:2078,0
DA:2081,0
DA:2085,0
DA:2086,0
DA:2087,0
DA:2088,0
DA:2090,0
DA:2093,0
DA:2094,0
DA:2095,0
DA:2096,0
DA:2098,0
DA:2101,0
DA:2102,0
DA:2103,0
DA:2104,0
DA:2106,0
DA:2109,0
DA:2110,0
DA:2111,0
DA:2112,0
DA:2114,0
DA:2120,0
DA:2121,0
DA:2124,0
DA:2126,0
DA:2127,0
DA:2128,0
DA:2129,0
DA:2130,0
DA:2131,0
DA:2132,0
DA:2134,0
DA:2135,0
DA:2136,0
DA:2137,0
DA:2143,0
DA:2144,0
DA:2145,0
DA:2146,0
DA:2147,0
DA:2148,0
DA:2149,0
DA:2151,0
DA:2154,0
DA:2155,0
DA:2156,0
DA:2157,0
DA:2158,0
DA:2159,0
DA:2160,0
DA:2161,0
DA:2163,0
DA:2167,0
DA:2168,0
DA:2171,0
DA:2172,0
DA:2173,0
DA:2174,0
DA:2175,0
DA:2176,0
DA:2177,0
DA:2178,0
DA:2179,0
DA:2189,0
DA:2193,0
DA:2195,0
DA:2208,0
DA:2210,0
DA:2215,0
DA:2216,0
DA:2218,0
DA:2220,0
DA:2223,0
DA:2224,0
DA:2225,0
DA:2226,0
DA:2227,0
DA:2228,0
DA:2229,0
DA:2230,0
DA:2231,0
DA:2233,0
DA:2234,0
DA:2235,0
DA:2237,0
DA:2238,0
DA:2240,0
DA:2241,0
DA:2243,0
DA:2244,0
DA:2245,0
DA:2246,0
DA:2247,0
DA:2248,0
DA:2249,0
DA:2250,0
DA:2252,0
DA:2253,0
DA:2254,0
DA:2255,0
DA:2256,0
DA:2257,0
DA:2258,0
DA:2259,0
DA:2260,0
DA:2261,0
DA:2262,0
DA:2263,0
DA:2264,0
DA:2265,0
DA:2269,0
DA:2270,0
DA:2273,0
DA:2274,0
DA:2276,0
DA:2277,0
DA:2278,0
DA:2279,0
DA:2280,0
DA:2281,0
DA:2285,0
DA:2286,0
DA:2287,0
DA:2288,0
DA:2289,0
DA:2290,0
DA:2291,0
DA:2292,0
DA:2293,0
DA:2294,0
DA:2295,0
DA:2296,0
DA:2297,0
DA:2298,0
DA:2299,0
DA:2300,0
DA:2301,0
DA:2302,0
DA:2303,0
DA:2309,0
DA:2310,0
DA:2311,0
DA:2312,0
DA:2313,0
DA:2314,0
DA:2315,0
DA:2316,0
DA:2319,0
DA:2320,0
DA:2321,0
DA:2322,0
DA:2323,0
DA:2324,0
DA:2325,0
DA:2326,0
DA:2327,0
DA:2328,0
DA:2329,0
DA:2330,0
DA:2331,0
DA:2332,0
DA:2333,0
DA:2334,0
DA:2335,0
DA:2336,0
DA:2337,0
DA:2338,0
DA:2339,0
DA:2340,0
DA:2341,0
DA:2342,0
DA:2343,0
DA:2344,0
DA:2345,0
DA:2347,0
DA:2353,0
DA:2354,0
DA:2356,0
DA:2359,0
DA:2360,0
DA:2361,0
DA:2362,0
DA:2365,0
DA:2367,0
DA:2368,0
DA:2372,0
DA:2373,0
DA:2378,0
DA:2379,0
DA:2380,0
DA:2381,0
DA:2383,0
DA:2384,0
DA:2385,0
DA:2387,0
DA:2390,0
DA:2391,0
DA:2393,0
DA:2396,0
DA:2399,0
DA:2400,0
DA:2401,0
DA:2402,0
DA:2403,0
DA:2406,0
DA:2407,0
DA:2408,0
DA:2418,0
DA:2419,0
DA:2420,0
DA:2421,0
DA:2422,0
DA:2423,0
DA:2425,0
DA:2445,0
DA:2446,0
DA:2449,0
DA:2450,0
DA:2451,0
DA:2452,0
DA:2461,0
DA:2462,0
DA:2465,0
DA:2468,0
DA:2469,0
DA:2471,0
DA:2473,0
DA:2532,0
DA:2533,0
DA:2534,0
DA:2535,0
DA:2557,0
DA:2558,0
DA:2559,0
DA:2560,0
DA:2561,0
LF:565
LH:0
end_of_record
TN:
SF:/home/gius/git/llama-cli/build/_deps/dtl-src/dtl/Diff.hpp
FN:113,115,_ZNK3dtl4DiffINSt7__cxx1112basic_stringIcSt11char_traitsIcESaIcEEESt6vectorIS6_SaIS6_EENS_7CompareIS6_EEE6getSesEv
FN:122,124,_ZNK3dtl4DiffINSt7__cxx1112basic_stringIcSt11char_traitsIcESaIcEEESt6vectorIS6_SaIS6_EENS_7CompareIS6_EEE6isHugeEv
FN:163,165,_ZNK3dtl4DiffINSt7__cxx1112basic_stringIcSt11char_traitsIcESaIcEEESt6vectorIS6_SaIS6_EENS_7CompareIS6_EEE14trivialEnabledEv
FN:260,310,_ZN3dtl4DiffINSt7__cxx1112basic_stringIcSt11char_traitsIcESaIcEEESt6vectorIS6_SaIS6_EENS_7CompareIS6_EEE7composeEv
FN:547,564,_ZN3dtl4DiffINSt7__cxx1112basic_stringIcSt11char_traitsIcESaIcEEESt6vectorIS6_SaIS6_EENS_7CompareIS6_EEE4initEv
FN:569,584,_ZN3dtl4DiffINSt7__cxx1112basic_stringIcSt11char_traitsIcESaIcEEESt6vectorIS6_SaIS6_EENS_7CompareIS6_EEE5snakeERKxSE_SE_
FN:589,669,_ZN3dtl4DiffINSt7__cxx1112basic_stringIcSt11char_traitsIcESaIcEEESt6vectorIS6_SaIS6_EENS_7CompareIS6_EEE14recordSequenceERKS7_INS_5PointESaISD_EE
FN:674,683,_ZN3dtl4DiffINSt7__cxx1112basic_stringIcSt11char_traitsIcESaIcEEESt6vectorIS6_SaIS6_EENS_7CompareIS6_EEE17recordOddSequenceExxN9__gnu_cxx17__normal_iteratorIPKS6_S9_EEi
FN:699,701,_ZNK3dtl4DiffINSt7__cxx1112basic_stringIcSt11char_traitsIcESaIcEEESt6vectorIS6_SaIS6_EENS_7CompareIS6_EEE10wasSwappedEv
FN:75,78,_ZN3dtl4DiffINSt7__cxx1112basic_stringIcSt11char_traitsIcESaIcEEESt6vectorIS6_SaIS6_EENS_7CompareIS6_EEEC2ERKS9_SE_
FN:99,99,_ZN3dtl4DiffINSt7__cxx1112basic_stringIcSt11char_traitsIcESaIcEEESt6vectorIS6_SaIS6_EENS_7CompareIS6_EEED2Ev
FNDA:5,_ZNK3dtl4DiffINSt7__cxx1112basic_stringIcSt11char_traitsIcESaIcEEESt6vectorIS6_SaIS6_EENS_7CompareIS6_EEE6getSesEv
FNDA:5,_ZNK3dtl4DiffINSt7__cxx1112basic_stringIcSt11char_traitsIcESaIcEEESt6vectorIS6_SaIS6_EENS_7CompareIS6_EEE6isHugeEv
FNDA:0,_ZNK3dtl4DiffINSt7__cxx1112basic_stringIcSt11char_traitsIcESaIcEEESt6vectorIS6_SaIS6_EENS_7CompareIS6_EEE14trivialEnabledEv
FNDA:5,_ZN3dtl4DiffINSt7__cxx1112basic_stringIcSt11char_traitsIcESaIcEEESt6vectorIS6_SaIS6_EENS_7CompareIS6_EEE7composeEv
FNDA:5,_ZN3dtl4DiffINSt7__cxx1112basic_stringIcSt11char_traitsIcESaIcEEESt6vectorIS6_SaIS6_EENS_7CompareIS6_EEE4initEv
FNDA:20,_ZN3dtl4DiffINSt7__cxx1112basic_stringIcSt11char_traitsIcESaIcEEESt6vectorIS6_SaIS6_EENS_7CompareIS6_EEE5snakeERKxSE_SE_
FNDA:5,_ZN3dtl4DiffINSt7__cxx1112basic_stringIcSt11char_traitsIcESaIcEEESt6vectorIS6_SaIS6_EENS_7CompareIS6_EEE14recordSequenceERKS7_INS_5PointESaISD_EE
FNDA:0,_ZN3dtl4DiffINSt7__cxx1112basic_stringIcSt11char_traitsIcESaIcEEESt6vectorIS6_SaIS6_EENS_7CompareIS6_EEE17recordOddSequenceExxN9__gnu_cxx17__normal_iteratorIPKS6_S9_EEi
FNDA:14,_ZNK3dtl4DiffINSt7__cxx1112basic_stringIcSt11char_traitsIcESaIcEEESt6vectorIS6_SaIS6_EENS_7CompareIS6_EEE10wasSwappedEv
FNDA:5,_ZN3dtl4DiffINSt7__cxx1112basic_stringIcSt11char_traitsIcESaIcEEESt6vectorIS6_SaIS6_EENS_7CompareIS6_EEEC2ERKS9_SE_
FNDA:5,_ZN3dtl4DiffINSt7__cxx1112basic_stringIcSt11char_traitsIcESaIcEEESt6vectorIS6_SaIS6_EENS_7CompareIS6_EEED2Ev
FNF:11
FNH:9
DA:75,5
DA:76,5
DA:77,5
DA:78,5
DA:99,5
DA:113,5
DA:114,5
DA:122,5
DA:123,5
DA:163,0
DA:164,0
DA:260,5
DA:262,5
DA:263,0
DA:265,5
DA:266,5
DA:267,5
DA:268,5
DA:269,5
DA:270,5
DA:271,5
DA:272,5
DA:274,10
DA:275,15
DA:276,5
DA:278,15
DA:279,5
DA:281,10
DA:282,10
DA:284,5
DA:285,5
DA:287,5
DA:290,5
DA:291,0
DA:292,0
DA:295,20
DA:296,15
DA:297,15
DA:298,15
DA:299,15
DA:303,5
DA:304,0
DA:305,0
DA:306,0
DA:307,0
DA:309,5
DA:310,5
DA:547,5
DA:548,5
DA:549,5
DA:550,5
DA:551,0
DA:553,5
DA:554,5
DA:555,5
DA:557,5
DA:558,5
DA:559,5
DA:560,5
DA:561,5
DA:562,5
DA:563,5
DA:564,5
DA:569,20
DA:570,20
DA:571,20
DA:572,20
DA:573,24
DA:574,4
DA:577,20
DA:578,20
DA:580,20
DA:581,20
DA:583,20
DA:589,5
DA:590,5
DA:591,5
DA:594,5
DA:595,5
DA:596,5
DA:597,20
DA:598,29
DA:599,14
DA:600,5
DA:601,0
DA:603,5
DA:605,5
DA:606,5
DA:607,5
DA:608,9
DA:609,5
DA:610,0
DA:612,5
DA:614,5
DA:615,5
DA:616,5
DA:618,4
DA:619,0
DA:620,0
DA:622,4
DA:623,4
DA:625,4
DA:626,4
DA:627,4
DA:628,4
DA:629,4
DA:630,4
DA:633,15
DA:636,5
DA:640,0
DA:641,0
DA:642,0
DA:643,0
DA:645,0
DA:646,0
DA:648,0
DA:652,0
DA:653,0
DA:654,0
DA:655,0
DA:656,0
DA:657,0
DA:658,0
DA:659,0
DA:660,0
DA:661,0
DA:662,0
DA:663,0
DA:664,0
DA:665,0
DA:666,0
DA:667,0
DA:668,5
DA:674,0
DA:675,0
DA:676,0
DA:677,0
DA:678,0
DA:679,0
DA:681,0
DA:682,0
DA:683,0
DA:699,14
DA:700,14
LF:144
LH:98
end_of_record
TN:
SF:/home/gius/git/llama-cli/build/_deps/dtl-src/dtl/Lcs.hpp
FN:50,50,_ZN3dtl3LcsINSt7__cxx1112basic_stringIcSt11char_traitsIcESaIcEEEEC2Ev
FN:51,51,_ZN3dtl3LcsINSt7__cxx1112basic_stringIcSt11char_traitsIcESaIcEEEED0Ev
FN:51,51,_ZN3dtl3LcsINSt7__cxx1112basic_stringIcSt11char_traitsIcESaIcEEEED2Ev
FNDA:5,_ZN3dtl3LcsINSt7__cxx1112basic_stringIcSt11char_traitsIcESaIcEEEEC2Ev
FNDA:0,_ZN3dtl3LcsINSt7__cxx1112basic_stringIcSt11char_traitsIcESaIcEEEED0Ev
FNDA:5,_ZN3dtl3LcsINSt7__cxx1112basic_stringIcSt11char_traitsIcESaIcEEEED2Ev
FNF:3
FNH:2
DA:50,5
DA:51,5
LF:2
LH:2
end_of_record
TN:
SF:/home/gius/git/llama-cli/build/_deps/dtl-src/dtl/Sequence.hpp
FN:51,51,_ZN3dtl8SequenceINSt7__cxx1112basic_stringIcSt11char_traitsIcESaIcEEEEC2Ev
FN:52,52,_ZN3dtl8SequenceINSt7__cxx1112basic_stringIcSt11char_traitsIcESaIcEEEED0Ev
FN:52,52,_ZN3dtl8SequenceINSt7__cxx1112basic_stringIcSt11char_traitsIcESaIcEEEED2Ev
FN:57,59,_ZN3dtl8SequenceINSt7__cxx1112basic_stringIcSt11char_traitsIcESaIcEEEE11addSequenceES6_
FNDA:10,_ZN3dtl8SequenceINSt7__cxx1112basic_stringIcSt11char_traitsIcESaIcEEEEC2Ev
FNDA:0,_ZN3dtl8SequenceINSt7__cxx1112basic_stringIcSt11char_traitsIcESaIcEEEED0Ev
FNDA:15,_ZN3dtl8SequenceINSt7__cxx1112basic_stringIcSt11char_traitsIcESaIcEEEED2Ev
FNDA:4,_ZN3dtl8SequenceINSt7__cxx1112basic_stringIcSt11char_traitsIcESaIcEEEE11addSequenceES6_
FNF:4
FNH:3
DA:51,10
DA:52,15
DA:57,4
DA:58,4
DA:59,4
LF:5
LH:5
end_of_record
TN:
SF:/home/gius/git/llama-cli/build/_deps/dtl-src/dtl/Ses.hpp
FN:119,121,_ZNK3dtl3SesINSt7__cxx1112basic_stringIcSt11char_traitsIcESaIcEEEE11getSequenceEv
FN:57,59,_ZN3dtl3SesINSt7__cxx1112basic_stringIcSt11char_traitsIcESaIcEEEEC2Eb
FN:60,60,_ZN3dtl3SesINSt7__cxx1112basic_stringIcSt11char_traitsIcESaIcEEEED0Ev
FN:60,60,_ZN3dtl3SesINSt7__cxx1112basic_stringIcSt11char_traitsIcESaIcEEEED2Ev
FN:83,117,_ZN3dtl3SesINSt7__cxx1112basic_stringIcSt11char_traitsIcESaIcEEEE11addSequenceES6_xxi
FNDA:5,_ZNK3dtl3SesINSt7__cxx1112basic_stringIcSt11char_traitsIcESaIcEEEE11getSequenceEv
FNDA:5,_ZN3dtl3SesINSt7__cxx1112basic_stringIcSt11char_traitsIcESaIcEEEEC2Eb
FNDA:0,_ZN3dtl3SesINSt7__cxx1112basic_stringIcSt11char_traitsIcESaIcEEEED0Ev
FNDA:10,_ZN3dtl3SesINSt7__cxx1112basic_stringIcSt11char_traitsIcESaIcEEEED2Ev
FNDA:14,_ZN3dtl3SesINSt7__cxx1112basic_stringIcSt11char_traitsIcESaIcEEEE11addSequenceES6_xxi
FNF:5
FNH:4
DA:57,5
DA:58,5
DA:59,5
DA:60,10
DA:83,14
DA:85,14
DA:86,14
DA:87,14
DA:88,14
DA:89,14
DA:90,14
DA:92,14
DA:93,5
DA:94,5
DA:95,5
DA:96,5
DA:97,0
DA:98,0
DA:100,5
DA:101,4
DA:102,4
DA:103,4
DA:104,4
DA:105,0
DA:106,0
DA:108,4
DA:109,5
DA:110,5
DA:111,5
DA:112,5
DA:113,0
DA:115,5
DA:117,14
DA:119,5
DA:120,5
LF:35
LH:30
end_of_record
TN:
SF:/home/gius/git/llama-cli/build/_deps/dtl-src/dtl/functors.hpp
FN:143,143,_ZN3dtl7CompareINSt7__cxx1112basic_stringIcSt11char_traitsIcESaIcEEEEC2Ev
FN:144,144,_ZN3dtl7CompareINSt7__cxx1112basic_stringIcSt11char_traitsIcESaIcEEEED0Ev
FN:144,144,_ZN3dtl7CompareINSt7__cxx1112basic_stringIcSt11char_traitsIcESaIcEEEED2Ev
FN:145,147,_ZNK3dtl7CompareINSt7__cxx1112basic_stringIcSt11char_traitsIcESaIcEEEE4implERKS6_S9_
FNDA:5,_ZN3dtl7CompareINSt7__cxx1112basic_stringIcSt11char_traitsIcESaIcEEEEC2Ev
FNDA:0,_ZN3dtl7CompareINSt7__cxx1112basic_stringIcSt11char_traitsIcESaIcEEEED0Ev
FNDA:5,_ZN3dtl7CompareINSt7__cxx1112basic_stringIcSt11char_traitsIcESaIcEEEED2Ev
FNDA:13,_ZNK3dtl7CompareINSt7__cxx1112basic_stringIcSt11char_traitsIcESaIcEEEE4implERKS6_S9_
FNF:4
FNH:3
DA:143,5
DA:144,5
DA:145,13
DA:146,13
LF:4
LH:4
end_of_record
TN:
SF:/home/gius/git/llama-cli/build/_deps/httplib-src/httplib.h
FN:10244,10246,_ZN7httplib6Client16set_read_timeoutEll
FN:1163,1166,_ZN7httplib6ResultC2EOSt10unique_ptrINS_8ResponseESt14default_deleteIS2_EENS_5ErrorEOSt18unordered_multimapINSt7__cxx1112basic_stringIcSt11char_traitsIcESaIcEEESE_NS_6detail11case_ignore4hashENSG_8equal_toESaISt4pairIKSE_SE_EEE
FN:1168,1168,_ZNK7httplib6ResultcvbEv
FN:1176,1176,_ZN7httplib6ResultptEv
FN:1475,1475,_ZNK7httplib10ClientImpl6Socket7is_openEv
FN:2018,2020,_ZN7httplib6detail10is_numericERKNSt7__cxx1112basic_stringIcSt11char_traitsIcESaIcEEE
FN:2022,2037,_ZN7httplib6detail20get_header_value_u64ERKSt18unordered_multimapINSt7__cxx1112basic_stringIcSt11char_traitsIcESaIcEEES7_NS0_11case_ignore4hashENS8_8equal_toESaISt4pairIKS7_S7_EEERSC_mmRb
FN:2039,2044,_ZN7httplib6detail20get_header_value_u64ERKSt18unordered_multimapINSt7__cxx1112basic_stringIcSt11char_traitsIcESaIcEEES7_NS0_11case_ignore4hashENS8_8equal_toESaISt4pairIKS7_S7_EEERSC_mm
FN:2048,2051,_ZNK7httplib7Request20get_header_value_u64ERKNSt7__cxx1112basic_stringIcSt11char_traitsIcESaIcEEEmm
FN:2053,2056,_ZNK7httplib8Response20get_header_value_u64ERKNSt7__cxx1112basic_stringIcSt11char_traitsIcESaIcEEEmm
FN:2074,2148,_ZN7httplib14status_messageEi
FN:2376,2376,_ZN7httplib6detail12BufferStreamC2Ev
FN:2377,2377,_ZN7httplib6detail12BufferStreamD0Ev
FN:2377,2377,_ZN7httplib6detail12BufferStreamD2Ev
FN:2396,2396,_ZN7httplib6detail10compressorD0Ev
FN:2396,2396,_ZN7httplib6detail10compressorD2Ev
FN:2405,2405,_ZN7httplib6detail12decompressorD0Ev
FN:2405,2405,_ZN7httplib6detail12decompressorD2Ev
FN:2416,2416,_ZN7httplib6detail12nocompressorD0Ev
FN:2416,2416,_ZN7httplib6detail12nocompressorD2Ev
FN:2529,2533,_ZN7httplib6detail6fields13is_token_charEc
FN:2535,2541,_ZN7httplib6detail6fields8is_tokenERKNSt7__cxx1112basic_stringIcSt11char_traitsIcESaIcEEE
FN:2543,2543,_ZN7httplib6detail6fields13is_field_nameERKNSt7__cxx1112basic_stringIcSt11char_traitsIcESaIcEEE
FN:2545,2545,_ZN7httplib6detail6fields8is_vcharEc
FN:2547,2547,_ZN7httplib6detail6fields11is_obs_textEc
FN:2549,2549,_ZN7httplib6detail6fields14is_field_vcharEc
FN:2551,2574,_ZN7httplib6detail6fields16is_field_contentERKNSt7__cxx1112basic_stringIcSt11char_traitsIcESaIcEEE
FN:2576,2576,_ZN7httplib6detail6fields14is_field_valueERKNSt7__cxx1112basic_stringIcSt11char_traitsIcESaIcEEE
FN:2590,2602,_ZN7httplib6detail6is_hexEcRi
FN:2604,2619,_ZN7httplib6detail13from_hex_to_iERKNSt7__cxx1112basic_stringIcSt11char_traitsIcESaIcEEEmmRi
FN:2621,2629,_ZN7httplib6detail13from_i_to_hexB5cxx11Em
FN:2631,2661,_ZN7httplib6detail7to_utf8EiPc
FN:2665,2691,_ZN7httplib6detail13base64_encodeERKNSt7__cxx1112basic_stringIcSt11char_traitsIcESaIcEEE
FN:2693,2733,_ZN7httplib6detail13is_valid_pathERKNSt7__cxx1112basic_stringIcSt11char_traitsIcESaIcEEE
FN:2735,2742,_ZN7httplib6detail8FileStatC2ERKNSt7__cxx1112basic_stringIcSt11char_traitsIcESaIcEEE
FN:2743,2745,_ZNK7httplib6detail8FileStat7is_fileEv
FN:2746,2748,_ZNK7httplib6detail8FileStat6is_dirEv
FN:2750,2769,_ZN7httplib6detail18encode_query_paramERKNSt7__cxx1112basic_stringIcSt11char_traitsIcESaIcEEE
FN:2771,2801,_ZN7httplib6detail10encode_urlERKNSt7__cxx1112basic_stringIcSt11char_traitsIcESaIcEEE
FN:2803,2838,_ZN7httplib6detail10decode_urlERKNSt7__cxx1112basic_stringIcSt11char_traitsIcESaIcEEEb
FN:2849,2854,_ZN7httplib6detail14file_extensionERKNSt7__cxx1112basic_stringIcSt11char_traitsIcESaIcEEE
FN:2856,2856,_ZN7httplib6detail15is_space_or_tabEc
FN:2858,2867,_ZN7httplib6detail4trimEPKcS2_mm
FN:2869,2872,_ZN7httplib6detail9trim_copyERKNSt7__cxx1112basic_stringIcSt11char_traitsIcESaIcEEE
FN:2874,2879,_ZN7httplib6detail23trim_double_quotes_copyERKNSt7__cxx1112basic_stringIcSt11char_traitsIcESaIcEEE
FN:2882,2893,_ZN7httplib6detail6divideEPKcmcSt8functionIFvS2_mS2_mEE
FN:2896,2900,_ZN7httplib6detail6divideERKNSt7__cxx1112basic_stringIcSt11char_traitsIcESaIcEEEcSt8functionIFvPKcmSB_mEE
FN:2902,2905,_ZN7httplib6detail5splitEPKcS2_cSt8functionIFvS2_S2_EE
FN:2907,2927,_ZN7httplib6detail5splitEPKcS2_cmSt8functionIFvS2_S2_EE
FN:2929,2932,_ZN7httplib6detail18stream_line_readerC2ERNS_6StreamEPcm
FN:2934,2940,_ZNK7httplib6detail18stream_line_reader3ptrEv
FN:2942,2948,_ZNK7httplib6detail18stream_line_reader4sizeEv
FN:2950,2953,_ZNK7httplib6detail18stream_line_reader13end_with_crlfEv
FN:2955,2988,_ZN7httplib6detail18stream_line_reader7getlineEv
FN:2990,3001,_ZN7httplib6detail18stream_line_reader6appendEc
FN:3003,3003,_ZN7httplib6detail4mmapC2EPKc
FN:3005,3005,_ZN7httplib6detail4mmapD2Ev
FN:3007,3087,_ZN7httplib6detail4mmap4openEPKc
FN:3089,3091,_ZNK7httplib6detail4mmap7is_openEv
FN:3093,3093,_ZNK7httplib6detail4mmap4sizeEv
FN:3095,3097,_ZNK7httplib6detail4mmap4dataEv
FN:3099,3129,_ZN7httplib6detail4mmap5closeEv
FN:3130,3136,_ZN7httplib6detail12close_socketEi
FN:3138,3149,_ZN7httplib6detail12handle_EINTRIZNS0_11read_socketEiPvmiEUlvE_EElT_
FN:3138,3149,_ZN7httplib6detail12handle_EINTRIZNS0_11select_readEillEUlvE_EElT_
FN:3138,3149,_ZN7httplib6detail12handle_EINTRIZNS0_11send_socketEiPKvmiEUlvE_EElT_
FN:3138,3149,_ZN7httplib6detail12handle_EINTRIZNS0_12select_writeEillEUlvE_EElT_
FN:3138,3149,_ZN7httplib6detail12handle_EINTRIZNS0_26wait_until_socket_is_readyEillEUlvE_EElT_
FN:3151,3161,_ZN7httplib6detail11read_socketEiPvmi
FN:3152,3160,_ZZN7httplib6detail11read_socketEiPvmiENKUlvE_clEv
FN:3163,3174,_ZN7httplib6detail11send_socketEiPKvmi
FN:3165,3173,_ZZN7httplib6detail11send_socketEiPKvmiENKUlvE_clEv
FN:3176,3202,_ZN7httplib6detail11select_readEill
FN:3198,3200,_ZZN7httplib6detail11select_readEillENKUlvE_clEv
FN:3204,3230,_ZN7httplib6detail12select_writeEill
FN:3226,3228,_ZZN7httplib6detail12select_writeEillENKUlvE_clEv
FN:3232,3287,_ZN7httplib6detail26wait_until_socket_is_readyEill
FN:3271,3273,_ZZN7httplib6detail26wait_until_socket_is_readyEillENKUlvE_clEv
FN:3289,3298,_ZN7httplib6detail15is_socket_aliveEi
FN:335,337,_ZN7httplib6detail11make_uniqueINS0_12nocompressorEJEEENSt9enable_ifIXntsrSt8is_arrayIT_E5valueESt10unique_ptrIS5_St14default_deleteIS5_EEE4typeEDpOT0_
FN:335,337,_ZN7httplib6detail11make_uniqueINS0_15gzip_compressorEJEEENSt9enable_ifIXntsrSt8is_arrayIT_E5valueESt10unique_ptrIS5_St14default_deleteIS5_EEE4typeEDpOT0_
FN:335,337,_ZN7httplib6detail11make_uniqueINS0_17gzip_decompressorEJEEENSt9enable_ifIXntsrSt8is_arrayIT_E5valueESt10unique_ptrIS5_St14default_deleteIS5_EEE4typeEDpOT0_
FN:335,337,_ZN7httplib6detail11make_uniqueINS_10ClientImplEJRKNSt7__cxx1112basic_stringIcSt11char_traitsIcESaIcEEEiSA_SA_EEENSt9enable_ifIXntsrSt8is_arrayIT_E5valueESt10unique_ptrISD_St14default_deleteISD_EEE4typeEDpOT0_
FN:335,337,_ZN7httplib6detail11make_uniqueINS_10ClientImplEJRNSt7__cxx1112basic_stringIcSt11char_traitsIcESaIcEEERiRKS8_SC_EEENSt9enable_ifIXntsrSt8is_arrayIT_E5valueESt10unique_ptrISF_St14default_deleteISF_EEE4typeEDpOT0_
FN:335,337,_ZN7httplib6detail11make_uniqueINS_8ResponseEJEEENSt9enable_ifIXntsrSt8is_arrayIT_E5valueESt10unique_ptrIS5_St14default_deleteIS5_EEE4typeEDpOT0_
FN:335,337,_ZN7httplib6detail11make_uniqueINS_9SSLClientEJRNSt7__cxx1112basic_stringIcSt11char_traitsIcESaIcEEERiRKS8_SC_EEENSt9enable_ifIXntsrSt8is_arrayIT_E5valueESt10unique_ptrISF_St14default_deleteISF_EEE4typeEDpOT0_
FN:3354,3385,_ZN7httplib6detail10keep_aliveERKSt6atomicIiEil
FN:3389,3403,_ZN7httplib6detail26process_server_socket_coreIZNS0_21process_server_socketIZNS_6Server24process_and_close_socketEiEUlRNS_6StreamEbRbE_EEbRKSt6atomicIiEimlllllT_EUlbS6_E_EEbSB_imlSC_
FN:3389,3403,_ZN7httplib6detail26process_server_socket_coreIZNS0_25process_server_socket_sslIZNS_9SSLServer24process_and_close_socketEiEUlRNS_6StreamEbRbE_EEbRKSt6atomicIiEP6ssl_stimlllllT_EUlbS6_E_EEbSB_imlSE_
FN:3407,3419,_ZN7httplib6detail21process_server_socketIZNS_6Server24process_and_close_socketEiEUlRNS_6StreamEbRbE_EEbRKSt6atomicIiEimlllllT_
FN:3414,3414,_ZZN7httplib6detail21process_server_socketIZNS_6Server24process_and_close_socketEiEUlRNS_6StreamEbRbE_EEbRKSt6atomicIiEimlllllT_ENKUlbS5_E_clEbS5_
FN:3421,3429,_ZN7httplib6detail21process_client_socketEillllSt8functionIFbRNS_6StreamEEE
FN:3431,3437,_ZN7httplib6detail15shutdown_socketEi
FN:3439,3446,_ZN7httplib6detail37escape_abstract_namespace_unix_domainERKNSt7__cxx1112basic_stringIcSt11char_traitsIcESaIcEEE
FN:3449,3456,_ZN7httplib6detail39unescape_abstract_namespace_unix_domainERKNSt7__cxx1112basic_stringIcSt11char_traitsIcESaIcEEE
FN:3459,3608,_ZN7httplib6detail13create_socketIZNS0_20create_client_socketERKNSt7__cxx1112basic_stringIcSt11char_traitsIcESaIcEEES9_iibbSt8functionIFviEEllllllS9_RNS_5ErrorEEUliR8addrinfoRbE_EEiS9_S9_iiibbSC_T_
FN:348,370,_ZN7httplib6detail11case_ignore8to_lowerEi
FN:3530,3530,_ZZN7httplib6detail13create_socketIZNS0_20create_client_socketERKNSt7__cxx1112basic_stringIcSt11char_traitsIcESaIcEEES9_iibbSt8functionIFviEEllllllS9_RNS_5ErrorEEUliR8addrinfoRbE_EEiS9_S9_iiibbSC_T_ENKUlvE_clEv
FN:3610,3619,_ZN7httplib6detail15set_nonblockingEib
FN:3621,3627,_ZN7httplib6detail19is_connection_errorEv
FN:3629,3651,_ZN7httplib6detail15bind_ip_addressEiRKNSt7__cxx1112basic_stringIcSt11char_traitsIcESaIcEEE
FN:3639,3639,_ZZN7httplib6detail15bind_ip_addressEiRKNSt7__cxx1112basic_stringIcSt11char_traitsIcESaIcEEEENKUlvE_clEv
FN:3658,3692,_ZN7httplib6detail5if2ipEiRKNSt7__cxx1112basic_stringIcSt11char_traitsIcESaIcEEE
FN:3661,3661,_ZZN7httplib6detail5if2ipEiRKNSt7__cxx1112basic_stringIcSt11char_traitsIcESaIcEEEENKUlvE_clEv
FN:3695,3778,_ZN7httplib6detail20create_client_socketERKNSt7__cxx1112basic_stringIcSt11char_traitsIcESaIcEEES8_iibbSt8functionIFviEEllllllS8_RNS_5ErrorE
FN:3705,3769,_ZZN7httplib6detail20create_client_socketERKNSt7__cxx1112basic_stringIcSt11char_traitsIcESaIcEEES8_iibbSt8functionIFviEEllllllS8_RNS_5ErrorEENKUliR8addrinfoRbE_clEiSF_SG_
FN:372,377,_ZN7httplib6detail11case_ignore5equalERKNSt7__cxx1112basic_stringIcSt11char_traitsIcESaIcEEES9_
FN:374,376,_ZZN7httplib6detail11case_ignore5equalERKNSt7__cxx1112basic_stringIcSt11char_traitsIcESaIcEEES9_ENKUlccE_clEcc
FN:3780,3800,_ZN7httplib6detail15get_ip_and_portERK16sockaddr_storagejRNSt7__cxx1112basic_stringIcSt11char_traitsIcESaIcEEERi
FN:380,382,_ZNK7httplib6detail11case_ignore8equal_toclERKNSt7__cxx1112basic_stringIcSt11char_traitsIcESaIcEEESA_
FN:3802,3809,_ZN7httplib6detail21get_local_ip_and_portEiRNSt7__cxx1112basic_stringIcSt11char_traitsIcESaIcEEERi
FN:3811,3837,_ZN7httplib6detail22get_remote_ip_and_portEiRNSt7__cxx1112basic_stringIcSt11char_traitsIcESaIcEEERi
FN:3839,3849,_ZN7httplib6detail12str2tag_coreEPKcmj
FN:3851,3853,_ZN7httplib6detail7str2tagERKNSt7__cxx1112basic_stringIcSt11char_traitsIcESaIcEEE
FN:386,388,_ZNK7httplib6detail11case_ignore4hashclERKNSt7__cxx1112basic_stringIcSt11char_traitsIcESaIcEEE
FN:3864,3927,_ZN7httplib6detail17find_content_typeERKNSt7__cxx1112basic_stringIcSt11char_traitsIcESaIcEEERKSt3mapIS6_S6_St4lessIS6_ESaISt4pairIS7_S6_EEES8_
FN:390,398,_ZNK7httplib6detail11case_ignore4hash9hash_coreEPKcmm
FN:3929,3946,_ZN7httplib6detail25can_compress_content_typeERKNSt7__cxx1112basic_stringIcSt11char_traitsIcESaIcEEE
FN:3948,3969,_ZN7httplib6detail13encoding_typeERKNS_7RequestERKNS_8ResponseE
FN:3971,3975,_ZN7httplib6detail12nocompressor8compressEPKcmbSt8functionIFbS3_mEE
FN:3978,3986,_ZN7httplib6detail15gzip_compressorC2Ev
FN:3988,3988,_ZN7httplib6detail15gzip_compressorD0Ev
FN:3988,3988,_ZN7httplib6detail15gzip_compressorD2Ev
FN:3990,4027,_ZN7httplib6detail15gzip_compressor8compressEPKcmbSt8functionIFbS3_mEE
FN:4029,4040,_ZN7httplib6detail17gzip_decompressorC2Ev
FN:4042,4042,_ZN7httplib6detail17gzip_decompressorD0Ev
FN:4042,4042,_ZN7httplib6detail17gzip_decompressorD2Ev
FN:4044,4044,_ZNK7httplib6detail17gzip_decompressor8is_validEv
FN:4046,4087,_ZN7httplib6detail17gzip_decompressor10decompressEPKcmSt8functionIFbS3_mEE
FN:407,408,_ZN7httplib6detail10scope_exitC2EOSt8functionIFvvEE
FN:416,418,_ZN7httplib6detail10scope_exitD2Ev
FN:4176,4178,_ZN7httplib6detail10has_headerERKSt18unordered_multimapINSt7__cxx1112basic_stringIcSt11char_traitsIcESaIcEEES7_NS0_11case_ignore4hashENS8_8equal_toESaISt4pairIKS7_S7_EEERSC_
FN:4180,4188,_ZN7httplib6detail16get_header_valueERKSt18unordered_multimapINSt7__cxx1112basic_stringIcSt11char_traitsIcESaIcEEES7_NS0_11case_ignore4hashENS8_8equal_toESaISt4pairIKS7_S7_EEERSC_PKcm
FN:4191,4236,_ZN7httplib6detail12parse_headerIZNS0_12read_headersERNS_6StreamERSt18unordered_multimapINSt7__cxx1112basic_stringIcSt11char_traitsIcESaIcEEESA_NS0_11case_ignore4hashENSB_8equal_toESaISt4pairIKSA_SA_EEEEUlRSF_SK_E_EEbPKcSN_T_
FN:4191,4236,_ZN7httplib6detail12parse_headerIZNS0_20read_content_chunkedINS_7RequestEEEbRNS_6StreamERT_St8functionIFbPKcmmmEEEUlRKNSt7__cxx1112basic_stringIcSt11char_traitsIcESaIcEEESK_E_EEbSA_SA_S6_
FN:4191,4236,_ZN7httplib6detail12parse_headerIZNS0_20read_content_chunkedINS_8ResponseEEEbRNS_6StreamERT_St8functionIFbPKcmmmEEEUlRKNSt7__cxx1112basic_stringIcSt11char_traitsIcESaIcEEESK_E_EEbSA_SA_S6_
FN:4191,4236,_ZN7httplib6detail12parse_headerIZNS0_23MultipartFormDataParser5parseEPKcmRKSt8functionIFbS4_mEERKS5_IFbRKNS_17MultipartFormDataEEEEUlRKNSt7__cxx1112basic_stringIcSt11char_traitsIcESaIcEEESO_E_EEbS4_S4_T_
FN:4238,4275,_ZN7httplib6detail12read_headersERNS_6StreamERSt18unordered_multimapINSt7__cxx1112basic_stringIcSt11char_traitsIcESaIcEEES9_NS0_11case_ignore4hashENSA_8equal_toESaISt4pairIKS9_S9_EEE
FN:4267,4269,_ZZN7httplib6detail12read_headersERNS_6StreamERSt18unordered_multimapINSt7__cxx1112basic_stringIcSt11char_traitsIcESaIcEEES9_NS0_11case_ignore4hashENSA_8equal_toESaISt4pairIKS9_S9_EEEENKUlRSE_SJ_E_clESJ_SJ_
FN:4277,4297,_ZN7httplib6detail24read_content_with_lengthERNS_6StreamEmSt8functionIFbmmEES3_IFbPKcmmmEE
FN:4299,4308,_ZN7httplib6detail24skip_content_with_lengthERNS_6StreamEm
FN:4310,4323,_ZN7httplib6detail27read_content_without_lengthERNS_6StreamESt8functionIFbPKcmmmEE
FN:4326,4389,_ZN7httplib6detail20read_content_chunkedINS_7RequestEEEbRNS_6StreamERT_St8functionIFbPKcmmmEE
FN:4326,4389,_ZN7httplib6detail20read_content_chunkedINS_8ResponseEEEbRNS_6StreamERT_St8functionIFbPKcmmmEE
FN:4381,4381,_ZZN7httplib6detail20read_content_chunkedINS_7RequestEEEbRNS_6StreamERT_St8functionIFbPKcmmmEEENKUlRKNSt7__cxx1112basic_stringIcSt11char_traitsIcESaIcEEESJ_E_clESJ_SJ_
FN:4381,4381,_ZZN7httplib6detail20read_content_chunkedINS_8ResponseEEEbRNS_6StreamERT_St8functionIFbPKcmmmEEENKUlRKNSt7__cxx1112basic_stringIcSt11char_traitsIcESaIcEEESJ_E_clESJ_SJ_
FN:4391,4394,_ZN7httplib6detail28is_chunked_transfer_encodingERKSt18unordered_multimapINSt7__cxx1112basic_stringIcSt11char_traitsIcESaIcEEES7_NS0_11case_ignore4hashENS8_8equal_toESaISt4pairIKS7_S7_EEE
FN:4397,4442,_ZN7httplib6detail24prepare_content_receiverINS_7RequestEZNS0_12read_contentIS2_EEbRNS_6StreamERT_mRiSt8functionIFbmmEES9_IFbPKcmmmEEbEUlRKSF_E_EEbS7_S8_SF_bT0_
FN:4397,4442,_ZN7httplib6detail24prepare_content_receiverINS_8ResponseEZNS0_12read_contentIS2_EEbRNS_6StreamERT_mRiSt8functionIFbmmEES9_IFbPKcmmmEEbEUlRKSF_E_EEbS7_S8_SF_bT0_
FN:4422,4422,_ZZN7httplib6detail24prepare_content_receiverINS_7RequestEZNS0_12read_contentIS2_EEbRNS_6StreamERT_mRiSt8functionIFbmmEES9_IFbPKcmmmEEbEUlRKSF_E_EEbS7_S8_SF_bT0_ENKUlSD_mmmE_clESD_mmm
FN:4422,4422,_ZZN7httplib6detail24prepare_content_receiverINS_8ResponseEZNS0_12read_contentIS2_EEbRNS_6StreamERT_mRiSt8functionIFbmmEES9_IFbPKcmmmEEbEUlRKSF_E_EEbS7_S8_SF_bT0_ENKUlSD_mmmE_clESD_mmm
FN:4425,4425,_ZZZN7httplib6detail24prepare_content_receiverINS_7RequestEZNS0_12read_contentIS2_EEbRNS_6StreamERT_mRiSt8functionIFbmmEES9_IFbPKcmmmEEbEUlRKSF_E_EEbS7_S8_SF_bT0_ENKUlSD_mmmE_clESD_mmmENKUlSD_mE_clESD_m
FN:4425,4425,_ZZZN7httplib6detail24prepare_content_receiverINS_8ResponseEZNS0_12read_contentIS2_EEbRNS_6StreamERT_mRiSt8functionIFbmmEES9_IFbPKcmmmEEbEUlRKSF_E_EEbS7_S8_SF_bT0_ENKUlSD_mmmE_clESD_mmmENKUlSD_mE_clESD_m
FN:4437,4437,_ZZN7httplib6detail24prepare_content_receiverINS_7RequestEZNS0_12read_contentIS2_EEbRNS_6StreamERT_mRiSt8functionIFbmmEES9_IFbPKcmmmEEbEUlRKSF_E_EEbS7_S8_SF_bT0_ENKUlSD_mmmE0_clESD_mmm
FN:4437,4437,_ZZN7httplib6detail24prepare_content_receiverINS_8ResponseEZNS0_12read_contentIS2_EEbRNS_6StreamERT_mRiSt8functionIFbmmEES9_IFbPKcmmmEEbEUlRKSF_E_EEbS7_S8_SF_bT0_ENKUlSD_mmmE0_clESD_mmm
FN:4445,4481,_ZN7httplib6detail12read_contentINS_7RequestEEEbRNS_6StreamERT_mRiSt8functionIFbmmEES8_IFbPKcmmmEEb
FN:4445,4481,_ZN7httplib6detail12read_contentINS_8ResponseEEEbRNS_6StreamERT_mRiSt8functionIFbmmEES8_IFbPKcmmmEEb
FN:4450,4450,_ZZN7httplib6detail12read_contentINS_7RequestEEEbRNS_6StreamERT_mRiSt8functionIFbmmEES8_IFbPKcmmmEEbENKUlRKSE_E_clESG_
FN:4450,4450,_ZZN7httplib6detail12read_contentINS_8ResponseEEEbRNS_6StreamERT_mRiSt8functionIFbmmEES8_IFbPKcmmmEEbENKUlRKSE_E_clESG_
FN:4483,4490,_ZN7httplib6detail18write_request_lineERNS_6StreamERKNSt7__cxx1112basic_stringIcSt11char_traitsIcESaIcEEESA_
FN:4492,4499,_ZN7httplib6detail19write_response_lineERNS_6StreamEi
FN:4501,4518,_ZN7httplib6detail13write_headersERNS_6StreamERKSt18unordered_multimapINSt7__cxx1112basic_stringIcSt11char_traitsIcESaIcEEES9_NS0_11case_ignore4hashENSA_8equal_toESaISt4pairIKS9_S9_EEE
FN:4520,4528,_ZN7httplib6detail10write_dataERNS_6StreamEPKcm
FN:4531,4566,_ZN7httplib6detail13write_contentIZNKS_10ClientImpl27write_content_with_providerERNS_6StreamERKNS_7RequestERNS_5ErrorEEUlvE_EEbS4_RKSt8functionIFbmmRNS_8DataSinkEEEmmT_S9_
FN:4531,4566,_ZN7httplib6detail13write_contentIZNS_6Server27write_content_with_providerERNS_6StreamERKNS_7RequestERNS_8ResponseERKNSt7__cxx1112basic_stringIcSt11char_traitsIcESaIcEEESH_EUlvE_EEbS4_RKSt8functionIFbmmRNS_8DataSinkEEEmmT_RNS_5ErrorE
FN:4538,4538,_ZZN7httplib6detail13write_contentIZNKS_10ClientImpl27write_content_with_providerERNS_6StreamERKNS_7RequestERNS_5ErrorEEUlvE_EEbS4_RKSt8functionIFbmmRNS_8DataSinkEEEmmT_S9_ENKUlPKcmE_clESK_m
FN:4538,4538,_ZZN7httplib6detail13write_contentIZNS_6Server27write_content_with_providerERNS_6StreamERKNS_7RequestERNS_8ResponseERKNSt7__cxx1112basic_stringIcSt11char_traitsIcESaIcEEESH_EUlvE_EEbS4_RKSt8functionIFbmmRNS_8DataSinkEEEmmT_RNS_5ErrorEENKUlPKcmE_clESU_m
FN:4549,4549,_ZZN7httplib6detail13write_contentIZNKS_10ClientImpl27write_content_with_providerERNS_6StreamERKNS_7RequestERNS_5ErrorEEUlvE_EEbS4_RKSt8functionIFbmmRNS_8DataSinkEEEmmT_S9_ENKUlvE_clEv
FN:4549,4549,_ZZN7httplib6detail13write_contentIZNS_6Server27write_content_with_providerERNS_6StreamERKNS_7RequestERNS_8ResponseERKNSt7__cxx1112basic_stringIcSt11char_traitsIcESaIcEEESH_EUlvE_EEbS4_RKSt8functionIFbmmRNS_8DataSinkEEEmmT_RNS_5ErrorEENKUlvE_clEv
FN:4569,4575,_ZN7httplib6detail13write_contentIZNS_6Server27write_content_with_providerERNS_6StreamERKNS_7RequestERNS_8ResponseERKNSt7__cxx1112basic_stringIcSt11char_traitsIcESaIcEEESH_EUlvE_EEbS4_RKSt8functionIFbmmRNS_8DataSinkEEEmmRKT_
FN:4579,4609,_ZN7httplib6detail28write_content_without_lengthIZNS_6Server27write_content_with_providerERNS_6StreamERKNS_7RequestERNS_8ResponseERKNSt7__cxx1112basic_stringIcSt11char_traitsIcESaIcEEESH_EUlvE_EEbS4_RKSt8functionIFbmmRNS_8DataSinkEEERKT_
FN:4587,4587,_ZZN7httplib6detail28write_content_without_lengthIZNS_6Server27write_content_with_providerERNS_6StreamERKNS_7RequestERNS_8ResponseERKNSt7__cxx1112basic_stringIcSt11char_traitsIcESaIcEEESH_EUlvE_EEbS4_RKSt8functionIFbmmRNS_8DataSinkEEERKT_ENKUlPKcmE_clESU_m
FN:4595,4595,_ZZN7httplib6detail28write_content_without_lengthIZNS_6Server27write_content_with_providerERNS_6StreamERKNS_7RequestERNS_8ResponseERKNSt7__cxx1112basic_stringIcSt11char_traitsIcESaIcEEESH_EUlvE_EEbS4_RKSt8functionIFbmmRNS_8DataSinkEEERKT_ENKUlvE_clEv
FN:4597,4597,_ZZN7httplib6detail28write_content_without_lengthIZNS_6Server27write_content_with_providerERNS_6StreamERKNS_7RequestERNS_8ResponseERKNSt7__cxx1112basic_stringIcSt11char_traitsIcESaIcEEESH_EUlvE_EEbS4_RKSt8functionIFbmmRNS_8DataSinkEEERKT_ENKUlvE0_clEv
FN:4613,4714,_ZN7httplib6detail21write_content_chunkedIZNKS_10ClientImpl27write_content_with_providerERNS_6StreamERKNS_7RequestERNS_5ErrorEEUlvE_NS0_10compressorEEEbS4_RKSt8functionIFbmmRNS_8DataSinkEEERKT_RT0_S9_
FN:4613,4714,_ZN7httplib6detail21write_content_chunkedIZNS_6Server27write_content_with_providerERNS_6StreamERKNS_7RequestERNS_8ResponseERKNSt7__cxx1112basic_stringIcSt11char_traitsIcESaIcEEESH_EUlvE_NS0_10compressorEEEbS4_RKSt8functionIFbmmRNS_8DataSinkEEERKT_RT0_RNS_5ErrorE
FN:4620,4620,_ZZN7httplib6detail21write_content_chunkedIZNKS_10ClientImpl27write_content_with_providerERNS_6StreamERKNS_7RequestERNS_5ErrorEEUlvE_NS0_10compressorEEEbS4_RKSt8functionIFbmmRNS_8DataSinkEEERKT_RT0_S9_ENKUlPKcmE_clESP_m
FN:4620,4620,_ZZN7httplib6detail21write_content_chunkedIZNS_6Server27write_content_with_providerERNS_6StreamERKNS_7RequestERNS_8ResponseERKNSt7__cxx1112basic_stringIcSt11char_traitsIcESaIcEEESH_EUlvE_NS0_10compressorEEEbS4_RKSt8functionIFbmmRNS_8DataSinkEEERKT_RT0_RNS_5ErrorEENKUlPKcmE_clESZ_m
FN:4627,4627,_ZZZN7httplib6detail21write_content_chunkedIZNKS_10ClientImpl27write_content_with_providerERNS_6StreamERKNS_7RequestERNS_5ErrorEEUlvE_NS0_10compressorEEEbS4_RKSt8functionIFbmmRNS_8DataSinkEEERKT_RT0_S9_ENKUlPKcmE_clESP_mENKUlSP_mE_clESP_m
FN:4627,4627,_ZZZN7httplib6detail21write_content_chunkedIZNS_6Server27write_content_with_providerERNS_6StreamERKNS_7RequestERNS_8ResponseERKNSt7__cxx1112basic_stringIcSt11char_traitsIcESaIcEEESH_EUlvE_NS0_10compressorEEEbS4_RKSt8functionIFbmmRNS_8DataSinkEEERKT_RT0_RNS_5ErrorEENKUlPKcmE_clESZ_mENKUlSZ_mE_clESZ_m
FN:4647,4647,_ZZN7httplib6detail21write_content_chunkedIZNKS_10ClientImpl27write_content_with_providerERNS_6StreamERKNS_7RequestERNS_5ErrorEEUlvE_NS0_10compressorEEEbS4_RKSt8functionIFbmmRNS_8DataSinkEEERKT_RT0_S9_ENKUlvE_clEv
FN:4647,4647,_ZZN7httplib6detail21write_content_chunkedIZNS_6Server27write_content_with_providerERNS_6StreamERKNS_7RequestERNS_8ResponseERKNSt7__cxx1112basic_stringIcSt11char_traitsIcESaIcEEESH_EUlvE_NS0_10compressorEEEbS4_RKSt8functionIFbmmRNS_8DataSinkEEERKT_RT0_RNS_5ErrorEENKUlvE_clEv
FN:4649,4649,_ZZN7httplib6detail21write_content_chunkedIZNKS_10ClientImpl27write_content_with_providerERNS_6StreamERKNS_7RequestERNS_5ErrorEEUlvE_NS0_10compressorEEEbS4_RKSt8functionIFbmmRNS_8DataSinkEEERKT_RT0_S9_ENKUlPKSt18unordered_multimapINSt7__cxx1112basic_stringIcSt11char_traitsIcESaIcEEESU_NS0_11case_ignore4hashENSV_8equal_toESaISt4pairIKSU_SU_EEEE_clES14_
FN:4649,4649,_ZZN7httplib6detail21write_content_chunkedIZNS_6Server27write_content_with_providerERNS_6StreamERKNS_7RequestERNS_8ResponseERKNSt7__cxx1112basic_stringIcSt11char_traitsIcESaIcEEESH_EUlvE_NS0_10compressorEEEbS4_RKSt8functionIFbmmRNS_8DataSinkEEERKT_RT0_RNS_5ErrorEENKUlPKSt18unordered_multimapISF_SF_NS0_11case_ignore4hashENSZ_8equal_toESaISt4pairISG_SF_EEEE_clES17_
FN:4656,4656,_ZZZN7httplib6detail21write_content_chunkedIZNKS_10ClientImpl27write_content_with_providerERNS_6StreamERKNS_7RequestERNS_5ErrorEEUlvE_NS0_10compressorEEEbS4_RKSt8functionIFbmmRNS_8DataSinkEEERKT_RT0_S9_ENKUlPKSt18unordered_multimapINSt7__cxx1112basic_stringIcSt11char_traitsIcESaIcEEESU_NS0_11case_ignore4hashENSV_8equal_toESaISt4pairIKSU_SU_EEEE_clES14_ENKUlPKcmE_clES17_m
FN:4656,4656,_ZZZN7httplib6detail21write_content_chunkedIZNS_6Server27write_content_with_providerERNS_6StreamERKNS_7RequestERNS_8ResponseERKNSt7__cxx1112basic_stringIcSt11char_traitsIcESaIcEEESH_EUlvE_NS0_10compressorEEEbS4_RKSt8functionIFbmmRNS_8DataSinkEEERKT_RT0_RNS_5ErrorEENKUlPKSt18unordered_multimapISF_SF_NS0_11case_ignore4hashENSZ_8equal_toESaISt4pairISG_SF_EEEE_clES17_ENKUlPKcmE_clES1A_m
FN:4693,4693,_ZZN7httplib6detail21write_content_chunkedIZNKS_10ClientImpl27write_content_with_providerERNS_6StreamERKNS_7RequestERNS_5ErrorEEUlvE_NS0_10compressorEEEbS4_RKSt8functionIFbmmRNS_8DataSinkEEERKT_RT0_S9_ENKUlvE0_clEv
FN:4693,4693,_ZZN7httplib6detail21write_content_chunkedIZNS_6Server27write_content_with_providerERNS_6StreamERKNS_7RequestERNS_8ResponseERKNSt7__cxx1112basic_stringIcSt11char_traitsIcESaIcEEESH_EUlvE_NS0_10compressorEEEbS4_RKSt8functionIFbmmRNS_8DataSinkEEERKT_RT0_RNS_5ErrorEENKUlvE0_clEv
FN:4695,4695,_ZZN7httplib6detail21write_content_chunkedIZNKS_10ClientImpl27write_content_with_providerERNS_6StreamERKNS_7RequestERNS_5ErrorEEUlvE_NS0_10compressorEEEbS4_RKSt8functionIFbmmRNS_8DataSinkEEERKT_RT0_S9_ENKUlRKSt18unordered_multimapINSt7__cxx1112basic_stringIcSt11char_traitsIcESaIcEEESU_NS0_11case_ignore4hashENSV_8equal_toESaISt4pairIKSU_SU_EEEE_clES14_
FN:4695,4695,_ZZN7httplib6detail21write_content_chunkedIZNS_6Server27write_content_with_providerERNS_6StreamERKNS_7RequestERNS_8ResponseERKNSt7__cxx1112basic_stringIcSt11char_traitsIcESaIcEEESH_EUlvE_NS0_10compressorEEEbS4_RKSt8functionIFbmmRNS_8DataSinkEEERKT_RT0_RNS_5ErrorEENKUlRKSt18unordered_multimapISF_SF_NS0_11case_ignore4hashENSZ_8equal_toESaISt4pairISG_SF_EEEE_clES17_
FN:4717,4723,_ZN7httplib6detail21write_content_chunkedIZNS_6Server27write_content_with_providerERNS_6StreamERKNS_7RequestERNS_8ResponseERKNSt7__cxx1112basic_stringIcSt11char_traitsIcESaIcEEESH_EUlvE_NS0_10compressorEEEbS4_RKSt8functionIFbmmRNS_8DataSinkEEERKT_RT0_
FN:4726,4750,_ZN7httplib6detail8redirectINS_10ClientImplEEEbRT_RNS_7RequestERNS_8ResponseERKNSt7__cxx1112basic_stringIcSt11char_traitsIcESaIcEEESG_RNS_5ErrorE
FN:4726,4750,_ZN7httplib6detail8redirectINS_9SSLClientEEEbRT_RNS_7RequestERNS_8ResponseERKNSt7__cxx1112basic_stringIcSt11char_traitsIcESaIcEEESG_RNS_5ErrorE
FN:4752,4762,_ZN7httplib6detail19params_to_query_strERKSt8multimapINSt7__cxx1112basic_stringIcSt11char_traitsIcESaIcEEES7_St4lessIS7_ESaISt4pairIKS7_S7_EEE
FN:4764,4785,_ZN7httplib6detail16parse_query_textEPKcmRSt8multimapINSt7__cxx1112basic_stringIcSt11char_traitsIcESaIcEEES9_St4lessIS9_ESaISt4pairIKS9_S9_EEE
FN:4767,4784,_ZZN7httplib6detail16parse_query_textEPKcmRSt8multimapINSt7__cxx1112basic_stringIcSt11char_traitsIcESaIcEEES9_St4lessIS9_ESaISt4pairIKS9_S9_EEEENKUlS2_S2_E_clES2_S2_
FN:4775,4779,_ZZZN7httplib6detail16parse_query_textEPKcmRSt8multimapINSt7__cxx1112basic_stringIcSt11char_traitsIcESaIcEEES9_St4lessIS9_ESaISt4pairIKS9_S9_EEEENKUlS2_S2_E_clES2_S2_ENKUlS2_mS2_mE_clES2_mS2_m
FN:4787,4789,_ZN7httplib6detail16parse_query_textERKNSt7__cxx1112basic_stringIcSt11char_traitsIcESaIcEEERSt8multimapIS6_S6_St4lessIS6_ESaISt4pairIS7_S6_EEE
FN:4791,4800,_ZN7httplib6detail24parse_multipart_boundaryERKNSt7__cxx1112basic_stringIcSt11char_traitsIcESaIcEEERS6_
FN:4802,4824,_ZN7httplib6detail24parse_disposition_paramsERKNSt7__cxx1112basic_stringIcSt11char_traitsIcESaIcEEERSt8multimapIS6_S6_St4lessIS6_ESaISt4pairIS7_S6_EEE
FN:4804,4823,_ZZN7httplib6detail24parse_disposition_paramsERKNSt7__cxx1112basic_stringIcSt11char_traitsIcESaIcEEERSt8multimapIS6_S6_St4lessIS6_ESaISt4pairIS7_S6_EEEENKUlPKcSI_E_clESI_SI_
FN:4811,4817,_ZZZN7httplib6detail24parse_disposition_paramsERKNSt7__cxx1112basic_stringIcSt11char_traitsIcESaIcEEERSt8multimapIS6_S6_St4lessIS6_ESaISt4pairIS7_S6_EEEENKUlPKcSI_E_clESI_SI_ENKUlSI_SI_E_clESI_SI_
FN:4829,4874,_ZN7httplib6detail18parse_range_headerERKNSt7__cxx1112basic_stringIcSt11char_traitsIcESaIcEEERSt6vectorISt4pairIllESaISB_EE
FN:4831,4834,_ZZN7httplib6detail18parse_range_headerERKNSt7__cxx1112basic_stringIcSt11char_traitsIcESaIcEEERSt6vectorISt4pairIllESaISB_EEENKUlS8_E_clES8_
FN:4833,4833,_ZZZN7httplib6detail18parse_range_headerERKNSt7__cxx1112basic_stringIcSt11char_traitsIcESaIcEEERSt6vectorISt4pairIllESaISB_EEENKUlS8_E_clES8_ENKUlhE_clEh
FN:4840,4867,_ZZN7httplib6detail18parse_range_headerERKNSt7__cxx1112basic_stringIcSt11char_traitsIcESaIcEEERSt6vectorISt4pairIllESaISB_EEENKUlPKcSG_E_clESG_SG_
FN:4879,4879,_ZN7httplib6detail23MultipartFormDataParserC2Ev
FN:4881,4885,_ZN7httplib6detail23MultipartFormDataParser12set_boundaryEONSt7__cxx1112basic_stringIcSt11char_traitsIcESaIcEEE
FN:4887,4887,_ZNK7httplib6detail23MultipartFormDataParser8is_validEv
FN:4889,5024,_ZN7httplib6detail23MultipartFormDataParser5parseEPKcmRKSt8functionIFbS3_mEERKS4_IFbRKNS_17MultipartFormDataEEE
FN:4927,4927,_ZZN7httplib6detail23MultipartFormDataParser5parseEPKcmRKSt8functionIFbS3_mEERKS4_IFbRKNS_17MultipartFormDataEEEENKUlRKNSt7__cxx1112basic_stringIcSt11char_traitsIcESaIcEEESN_E_clESN_SN_
FN:5027,5031,_ZN7httplib6detail23MultipartFormDataParser15clear_file_infoEv
FN:5033,5042,_ZNK7httplib6detail23MultipartFormDataParser22start_with_case_ignoreERKNSt7__cxx1112basic_stringIcSt11char_traitsIcESaIcEEES9_
FN:5055,5062,_ZNK7httplib6detail23MultipartFormDataParser10start_withERKNSt7__cxx1112basic_stringIcSt11char_traitsIcESaIcEEEmmS9_
FN:5064,5064,_ZNK7httplib6detail23MultipartFormDataParser8buf_sizeEv
FN:5066,5066,_ZNK7httplib6detail23MultipartFormDataParser8buf_dataEv
FN:5068,5068,_ZNK7httplib6detail23MultipartFormDataParser8buf_headB5cxx11Em
FN:5070,5072,_ZNK7httplib6detail23MultipartFormDataParser14buf_start_withERKNSt7__cxx1112basic_stringIcSt11char_traitsIcESaIcEEE
FN:5074,5095,_ZNK7httplib6detail23MultipartFormDataParser8buf_findERKNSt7__cxx1112basic_stringIcSt11char_traitsIcESaIcEEE
FN:5097,5113,_ZN7httplib6detail23MultipartFormDataParser10buf_appendEPKcm
FN:5115,5115,_ZN7httplib6detail23MultipartFormDataParser9buf_eraseEm
FN:5122,5142,_ZN7httplib6detail13random_stringB5cxx11Em
FN:5144,5146,_ZN7httplib6detail28make_multipart_data_boundaryB5cxx11Ev
FN:5205,5269,_ZN7httplib6detail11range_errorERNS_7RequestERNS_8ResponseE
FN:5272,5279,_ZN7httplib6detail27get_range_offset_and_lengthESt4pairIllEm
FN:5281,5293,_ZN7httplib6detail31make_content_range_header_fieldB5cxx11ERKSt4pairImmEm
FN:5296,5330,_ZN7httplib6detail29process_multipart_ranges_dataIZNS0_26make_multipart_ranges_dataERKNS_7RequestERNS_8ResponseERKNSt7__cxx1112basic_stringIcSt11char_traitsIcESaIcEEESE_mRSC_EUlSE_E_ZNS0_26make_multipart_ranges_dataES4_S6_SE_SE_mSF_EUlSE_E0_ZNS0_26make_multipart_ranges_dataES4_S6_SE_SE_mSF_EUlmmE_EEbS4_SE_SE_mT_T0_T1_
FN:5296,5330,_ZN7httplib6detail29process_multipart_ranges_dataIZNS0_27write_multipart_ranges_dataIZNS_6Server27write_content_with_providerERNS_6StreamERKNS_7RequestERNS_8ResponseERKNSt7__cxx1112basic_stringIcSt11char_traitsIcESaIcEEESI_EUlvE_EEbS5_S8_SA_SI_SI_mRKT_EUlSI_E_ZNS2_ISJ_EEbS5_S8_SA_SI_SI_mSM_EUlSI_E0_ZNS2_ISJ_EEbS5_S8_SA_SI_SI_mSM_EUlmmE_EEbS8_SI_SI_mSK_T0_T1_
FN:5296,5330,_ZN7httplib6detail29process_multipart_ranges_dataIZNS0_32get_multipart_ranges_data_lengthERKNS_7RequestERKNSt7__cxx1112basic_stringIcSt11char_traitsIcESaIcEEESC_mEUlSC_E_ZNS0_32get_multipart_ranges_data_lengthES4_SC_SC_mEUlSC_E0_ZNS0_32get_multipart_ranges_data_lengthES4_SC_SC_mEUlmmE_EEbS4_SC_SC_mT_T0_T1_
FN:531,531,_ZN7httplib8DataSinkC2Ev
FN:5332,5346,_ZN7httplib6detail26make_multipart_ranges_dataERKNS_7RequestERNS_8ResponseERKNSt7__cxx1112basic_stringIcSt11char_traitsIcESaIcEEESD_mRSB_
FN:5339,5339,_ZZN7httplib6detail26make_multipart_ranges_dataERKNS_7RequestERNS_8ResponseERKNSt7__cxx1112basic_stringIcSt11char_traitsIcESaIcEEESD_mRSB_ENKUlSD_E_clESD_
FN:5340,5340,_ZZN7httplib6detail26make_multipart_ranges_dataERKNS_7RequestERNS_8ResponseERKNSt7__cxx1112basic_stringIcSt11char_traitsIcESaIcEEESD_mRSB_ENKUlSD_E0_clESD_
FN:5341,5345,_ZZN7httplib6detail26make_multipart_ranges_dataERKNS_7RequestERNS_8ResponseERKNSt7__cxx1112basic_stringIcSt11char_traitsIcESaIcEEESD_mRSB_ENKUlmmE_clEmm
FN:5348,5364,_ZN7httplib6detail32get_multipart_ranges_data_lengthERKNS_7RequestERKNSt7__cxx1112basic_stringIcSt11char_traitsIcESaIcEEESB_m
FN:5356,5356,_ZZN7httplib6detail32get_multipart_ranges_data_lengthERKNS_7RequestERKNSt7__cxx1112basic_stringIcSt11char_traitsIcESaIcEEESB_mENKUlSB_E_clESB_
FN:5357,5357,_ZZN7httplib6detail32get_multipart_ranges_data_lengthERKNS_7RequestERKNSt7__cxx1112basic_stringIcSt11char_traitsIcESaIcEEESB_mENKUlSB_E0_clESB_
FN:5358,5361,_ZZN7httplib6detail32get_multipart_ranges_data_lengthERKNS_7RequestERKNSt7__cxx1112basic_stringIcSt11char_traitsIcESaIcEEESB_mENKUlmmE_clEmm
FN:5368,5380,_ZN7httplib6detail27write_multipart_ranges_dataIZNS_6Server27write_content_with_providerERNS_6StreamERKNS_7RequestERNS_8ResponseERKNSt7__cxx1112basic_stringIcSt11char_traitsIcESaIcEEESH_EUlvE_EEbS4_S7_S9_SH_SH_mRKT_
FN:5374,5374,_ZZN7httplib6detail27write_multipart_ranges_dataIZNS_6Server27write_content_with_providerERNS_6StreamERKNS_7RequestERNS_8ResponseERKNSt7__cxx1112basic_stringIcSt11char_traitsIcESaIcEEESH_EUlvE_EEbS4_S7_S9_SH_SH_mRKT_ENKUlSH_E_clESH_
FN:5375,5375,_ZZN7httplib6detail27write_multipart_ranges_dataIZNS_6Server27write_content_with_providerERNS_6StreamERKNS_7RequestERNS_8ResponseERKNSt7__cxx1112basic_stringIcSt11char_traitsIcESaIcEEESH_EUlvE_EEbS4_S7_S9_SH_SH_mRKT_ENKUlSH_E0_clESH_
FN:5376,5376,_ZZN7httplib6detail27write_multipart_ranges_dataIZNS_6Server27write_content_with_providerERNS_6StreamERKNS_7RequestERNS_8ResponseERKNSt7__cxx1112basic_stringIcSt11char_traitsIcESaIcEEESH_EUlvE_EEbS4_S7_S9_SH_SH_mRKT_ENKUlmmE_clEmm
FN:5382,5393,_ZN7httplib6detail14expect_contentERKNS_7RequestE
FN:5405,5423,_ZN7httplib6detail14message_digestERKNSt7__cxx1112basic_stringIcSt11char_traitsIcESaIcEEEPK9evp_md_st
FN:5425,5427,_ZN7httplib6detail3MD5ERKNSt7__cxx1112basic_stringIcSt11char_traitsIcESaIcEEE
FN:5429,5431,_ZN7httplib6detail7SHA_256ERKNSt7__cxx1112basic_stringIcSt11char_traitsIcESaIcEEE
FN:5433,5435,_ZN7httplib6detail7SHA_512ERKNSt7__cxx1112basic_stringIcSt11char_traitsIcESaIcEEE
FN:547,547,_ZN7httplib8DataSink19data_sink_streambufC2ERS0_
FN:550,553,_ZN7httplib8DataSink19data_sink_streambuf6xsputnEPKcl
FN:5578,5636,_ZN7httplib6detail33make_digest_authentication_headerERKNS_7RequestERKSt3mapINSt7__cxx1112basic_stringIcSt11char_traitsIcESaIcEEESA_St4lessISA_ESaISt4pairIKSA_SA_EEEmRSE_SK_SK_b
FN:5639,5670,_ZN7httplib6detail22parse_www_authenticateERKNS_8ResponseERSt3mapINSt7__cxx1112basic_stringIcSt11char_traitsIcESaIcEEESA_St4lessISA_ESaISt4pairIKSA_SA_EEEb
FN:5674,5676,_ZN7httplib6detail22ContentProviderAdapterC2EOSt8functionIFbmRNS_8DataSinkEEE
FN:5678,5680,_ZN7httplib6detail22ContentProviderAdapterclEmmRNS_8DataSinkE
FN:5725,5732,_ZN7httplib19append_query_paramsERKNSt7__cxx1112basic_stringIcSt11char_traitsIcESaIcEEERKSt8multimapIS5_S5_St4lessIS5_ESaISt4pairIS6_S5_EEE
FN:5750,5755,_ZN7httplib32make_basic_authentication_headerERKNSt7__cxx1112basic_stringIcSt11char_traitsIcESaIcEEES7_b
FN:5758,5763,_ZN7httplib39make_bearer_token_authentication_headerERKNSt7__cxx1112basic_stringIcSt11char_traitsIcESaIcEEEb
FN:5766,5768,_ZNK7httplib7Request10has_headerERKNSt7__cxx1112basic_stringIcSt11char_traitsIcESaIcEEE
FN:5770,5773,_ZNK7httplib7Request16get_header_valueERKNSt7__cxx1112basic_stringIcSt11char_traitsIcESaIcEEEPKcm
FN:5780,5786,_ZN7httplib7Request10set_headerERKNSt7__cxx1112basic_stringIcSt11char_traitsIcESaIcEEES8_
FN:5806,5809,_ZNK7httplib7Request22is_multipart_form_dataEv
FN:5832,5834,_ZNK7httplib8Response10has_headerERKNSt7__cxx1112basic_stringIcSt11char_traitsIcESaIcEEE
FN:5836,5840,_ZNK7httplib8Response16get_header_valueERKNSt7__cxx1112basic_stringIcSt11char_traitsIcESaIcEEEPKcm
FN:5847,5853,_ZN7httplib8Response10set_headerERKNSt7__cxx1112basic_stringIcSt11char_traitsIcESaIcEEES8_
FN:5855,5864,_ZN7httplib8Response12set_redirectERKNSt7__cxx1112basic_stringIcSt11char_traitsIcESaIcEEEi
FN:5889,5897,_ZN7httplib8Response20set_content_providerEmRKNSt7__cxx1112basic_stringIcSt11char_traitsIcESaIcEEESt8functionIFbmmRNS_8DataSinkEEES9_IFvbEE
FN:594,596,_ZN7httplib13ContentReaderC2ESt8functionIFbS1_IFbPKcmEEEES1_IFbS1_IFbRKNS_17MultipartFormDataEEES5_EE
FN:5947,5949,_ZN7httplib6Stream5writeEPKc
FN:5951,5953,_ZN7httplib6Stream5writeERKNSt7__cxx1112basic_stringIcSt11char_traitsIcESaIcEEE
FN:5958,5965,_ZN7httplib6detail12SocketStreamC2Eillll
FN:5967,5967,_ZN7httplib6detail12SocketStreamD0Ev
FN:5967,5967,_ZN7httplib6detail12SocketStreamD2Ev
FN:5969,5971,_ZNK7httplib6detail12SocketStream11is_readableEv
FN:5973,5976,_ZNK7httplib6detail12SocketStream11is_writableEv
FN:5978,6022,_ZN7httplib6detail12SocketStream4readEPcm
FN:6024,6033,_ZN7httplib6detail12SocketStream5writeEPKcm
FN:6035,6038,_ZNK7httplib6detail12SocketStream22get_remote_ip_and_portERNSt7__cxx1112basic_stringIcSt11char_traitsIcESaIcEEERi
FN:6040,6043,_ZNK7httplib6detail12SocketStream21get_local_ip_and_portERNSt7__cxx1112basic_stringIcSt11char_traitsIcESaIcEEERi
FN:6045,6045,_ZNK7httplib6detail12SocketStream6socketEv
FN:6048,6048,_ZNK7httplib6detail12BufferStream11is_readableEv
FN:6050,6050,_ZNK7httplib6detail12BufferStream11is_writableEv
FN:6052,6060,_ZN7httplib6detail12BufferStream4readEPcm
FN:6062,6065,_ZN7httplib6detail12BufferStream5writeEPKcm
FN:6067,6068,_ZNK7httplib6detail12BufferStream22get_remote_ip_and_portERNSt7__cxx1112basic_stringIcSt11char_traitsIcESaIcEEERi
FN:6070,6071,_ZNK7httplib6detail12BufferStream21get_local_ip_and_portERNSt7__cxx1112basic_stringIcSt11char_traitsIcESaIcEEERi
FN:6073,6073,_ZNK7httplib6detail12BufferStream6socketEv
FN:6075,6075,_ZNK7httplib6detail12BufferStream10get_bufferB5cxx11Ev
FN:6125,6166,_ZNK7httplib6detail17PathParamsMatcher5matchERNS_7RequestE
FN:6168,6171,_ZNK7httplib6detail12RegexMatcher5matchERNS_7RequestE
FN:6184,6184,_ZN7httplib6ServerD0Ev
FN:6184,6184,_ZN7httplib6ServerD2Ev
FN:633,633,_ZNK7httplib7Request20is_connection_closedMUlvE_clEv
FN:6442,6490,_ZNK7httplib6Server18parse_request_lineEPKcRNS_7RequestE
FN:6450,6458,_ZZNK7httplib6Server18parse_request_lineEPKcRNS_7RequestEENKUlS2_S2_E_clES2_S2_
FN:6481,6486,_ZZNK7httplib6Server18parse_request_lineEPKcRNS_7RequestEENKUlS2_mS2_mE_clES2_mS2_m
FN:6492,6498,_ZN7httplib6Server14write_responseERNS_6StreamEbRNS_7RequestERNS_8ResponseE
FN:6500,6505,_ZN7httplib6Server27write_response_with_contentERNS_6StreamEbRKNS_7RequestERNS_8ResponseE
FN:6507,6579,_ZN7httplib6Server19write_response_coreERNS_6StreamEbRKNS_7RequestERNS_8ResponseEb
FN:6582,6630,_ZN7httplib6Server27write_content_with_providerERNS_6StreamERKNS_7RequestERNS_8ResponseERKNSt7__cxx1112basic_stringIcSt11char_traitsIcESaIcEEESF_
FN:6585,6587,_ZZN7httplib6Server27write_content_with_providerERNS_6StreamERKNS_7RequestERNS_8ResponseERKNSt7__cxx1112basic_stringIcSt11char_traitsIcESaIcEEESF_ENKUlvE_clEv
FN:6632,6668,_ZN7httplib6Server12read_contentERNS_6StreamERNS_7RequestERNS_8ResponseE
FN:6638,6642,_ZZN7httplib6Server12read_contentERNS_6StreamERNS_7RequestERNS_8ResponseEENKUlPKcmE_clES8_m
FN:6644,6650,_ZZN7httplib6Server12read_contentERNS_6StreamERNS_7RequestERNS_8ResponseEENKUlRKNS_17MultipartFormDataEE_clES9_
FN:6651,6656,_ZZN7httplib6Server12read_contentERNS_6StreamERNS_7RequestERNS_8ResponseEENKUlPKcmE0_clES8_m
FN:6670,6677,_ZN7httplib6Server34read_content_with_content_receiverERNS_6StreamERNS_7RequestERNS_8ResponseESt8functionIFbPKcmEES7_IFbRKNS_17MultipartFormDataEEESB_
FN:6680,6733,_ZNK7httplib6Server17read_content_coreERNS_6StreamERNS_7RequestERNS_8ResponseESt8functionIFbPKcmEES7_IFbRKNS_17MultipartFormDataEEESB_
FN:6696,6710,_ZZNK7httplib6Server17read_content_coreERNS_6StreamERNS_7RequestERNS_8ResponseESt8functionIFbPKcmEES7_IFbRKNS_17MultipartFormDataEEESB_ENKUlS9_mmmE_clES9_mmm
FN:6712,6713,_ZZNK7httplib6Server17read_content_coreERNS_6StreamERNS_7RequestERNS_8ResponseESt8functionIFbPKcmEES7_IFbRKNS_17MultipartFormDataEEESB_ENKUlS9_mmmE0_clES9_mmm
FN:6735,6779,_ZN7httplib6Server19handle_file_requestERKNS_7RequestERNS_8ResponseEb
FN:6764,6767,_ZZN7httplib6Server19handle_file_requestERKNS_7RequestERNS_8ResponseEbENKUlmmRNS_8DataSinkEE_clEmmS7_
FN:6921,6996,_ZN7httplib6Server7routingERNS_7RequestERNS_8ResponseERNS_6StreamE
FN:6938,6941,_ZZN7httplib6Server7routingERNS_7RequestERNS_8ResponseERNS_6StreamEENKUlSt8functionIFbPKcmEEE_clESB_
FN:6942,6946,_ZZN7httplib6Server7routingERNS_7RequestERNS_8ResponseERNS_6StreamEENKUlSt8functionIFbRKNS_17MultipartFormDataEEES7_IFbPKcmEEE_clESC_SG_
FN:6998,7010,_ZNK7httplib6Server16dispatch_requestERNS_7RequestERNS_8ResponseERKSt6vectorISt4pairISt10unique_ptrINS_6detail11MatcherBaseESt14default_deleteIS9_EESt8functionIFvRKS1_S4_EEESaISI_EE
FN:7012,7115,_ZNK7httplib6Server12apply_rangesERKNS_7RequestERNS_8ResponseERNSt7__cxx1112basic_stringIcSt11char_traitsIcESaIcEEESC_
FN:706,706,_ZN7httplib8ResponseC2Ev
FN:708,708,_ZN7httplib8ResponseaSERKS0_
FN:710,710,_ZN7httplib8ResponseaSEOS0_
FN:7102,7105,_ZZNK7httplib6Server12apply_rangesERKNS_7RequestERNS_8ResponseERNSt7__cxx1112basic_stringIcSt11char_traitsIcESaIcEEESC_ENKUlPKcmE_clESE_m
FN:711,715,_ZN7httplib8ResponseD2Ev
FN:7117,7130,_ZNK7httplib6Server35dispatch_request_for_content_readerERNS_7RequestERNS_8ResponseENS_13ContentReaderERKSt6vectorISt4pairISt10unique_ptrINS_6detail11MatcherBaseESt14default_deleteISA_EESt8functionIFvRKS1_S4_RKS5_EEESaISL_EE
FN:7133,7313,_ZN7httplib6Server15process_requestERNS_6StreamERKNSt7__cxx1112basic_stringIcSt11char_traitsIcESaIcEEEiSA_ibRbRKSt8functionIFvRNS_7RequestEEE
FN:7227,7229,_ZZN7httplib6Server15process_requestERNS_6StreamERKNSt7__cxx1112basic_stringIcSt11char_traitsIcESaIcEEEiSA_ibRbRKSt8functionIFvRNS_7RequestEEEENKUlvE_clEv
FN:729,729,_ZN7httplib6StreamD0Ev
FN:729,729,_ZN7httplib6StreamD2Ev
FN:7293,7296,_ZZN7httplib6Server15process_requestERNS_6StreamERKNSt7__cxx1112basic_stringIcSt11char_traitsIcESaIcEEEiSA_ibRbRKSt8functionIFvRNS_7RequestEEEENKUlmmRNS_8DataSinkEE_clEmmSK_
FN:7315,7315,_ZNK7httplib6Server8is_validEv
FN:7317,7339,_ZN7httplib6Server24process_and_close_socketEi
FN:7330,7334,_ZZN7httplib6Server24process_and_close_socketEiENKUlRNS_6StreamEbRbE_clES2_bS3_
FN:7345,7346,_ZN7httplib10ClientImplC2ERKNSt7__cxx1112basic_stringIcSt11char_traitsIcESaIcEEEi
FN:7348,7353,_ZN7httplib10ClientImplC2ERKNSt7__cxx1112basic_stringIcSt11char_traitsIcESaIcEEEiS8_S8_
FN:7355,7359,_ZN7httplib10ClientImplD0Ev
FN:7355,7359,_ZN7httplib10ClientImplD2Ev
FN:7361,7361,_ZNK7httplib10ClientImpl8is_validEv
FN:7363,7408,_ZN7httplib10ClientImpl13copy_settingsERKS0_
FN:7410,7429,_ZNK7httplib10ClientImpl20create_client_socketERNS_5ErrorE
FN:7431,7437,_ZN7httplib10ClientImpl25create_and_connect_socketERNS0_6SocketERNS_5ErrorE
FN:7439,7445,_ZN7httplib10ClientImpl12shutdown_sslERNS0_6SocketEb
FN:7447,7450,_ZNK7httplib10ClientImpl15shutdown_socketERNS0_6SocketE
FN:7452,7469,_ZN7httplib10ClientImpl12close_socketERNS0_6SocketE
FN:7471,7505,_ZNK7httplib10ClientImpl18read_response_lineERNS_6StreamERKNS_7RequestERNS_8ResponseE
FN:7507,7515,_ZN7httplib10ClientImpl4sendERNS_7RequestERNS_8ResponseERNS_5ErrorE
FN:7518,7526,_ZNK7httplib10ClientImpl27is_ssl_peer_could_be_closedEP6ssl_st
FN:7521,7521,_ZZNK7httplib10ClientImpl27is_ssl_peer_could_be_closedEP6ssl_stENKUlvE_clEv
FN:7529,7623,_ZN7httplib10ClientImpl5send_ERNS_7RequestERNS_8ResponseERNS_5ErrorE
FN:7597,7612,_ZZN7httplib10ClientImpl5send_ERNS_7RequestERNS_8ResponseERNS_5ErrorEENKUlvE_clEv
FN:7614,7616,_ZZN7httplib10ClientImpl5send_ERNS_7RequestERNS_8ResponseERNS_5ErrorEENKUlRNS_6StreamEE_clES8_
FN:7630,7635,_ZN7httplib10ClientImpl5send_EONS_7RequestE
FN:7637,7712,_ZN7httplib10ClientImpl14handle_requestERNS_6StreamERNS_7RequestERNS_8ResponseEbRNS_5ErrorE
FN:7714,7769,_ZN7httplib10ClientImpl8redirectERNS_7RequestERNS_8ResponseERNS_5ErrorE
FN:7771,7794,_ZNK7httplib10ClientImpl27write_content_with_providerERNS_6StreamERKNS_7RequestERNS_5ErrorE
FN:7774,7774,_ZZNK7httplib10ClientImpl27write_content_with_providerERNS_6StreamERKNS_7RequestERNS_5ErrorEENKUlvE_clEv
FN:7796,7932,_ZN7httplib10ClientImpl13write_requestERNS_6StreamERNS_7RequestEbRNS_5ErrorE
FN:7934,8011,_ZN7httplib10ClientImpl26send_with_content_providerERNS_7RequestEPKcmSt8functionIFbmmRNS_8DataSinkEEES5_IFbmS7_EERKNSt7__cxx1112basic_stringIcSt11char_traitsIcESaIcEEERNS_5ErrorE
FN:7955,7973,_ZZN7httplib10ClientImpl26send_with_content_providerERNS_7RequestEPKcmSt8functionIFbmmRNS_8DataSinkEEES5_IFbmS7_EERKNSt7__cxx1112basic_stringIcSt11char_traitsIcESaIcEEERNS_5ErrorEENKUlS4_mE_clES4_m
FN:7961,7964,_ZZZN7httplib10ClientImpl26send_with_content_providerERNS_7RequestEPKcmSt8functionIFbmmRNS_8DataSinkEEES5_IFbmS7_EERKNSt7__cxx1112basic_stringIcSt11char_traitsIcESaIcEEERNS_5ErrorEENKUlS4_mE_clES4_mENKUlS4_mE_clES4_m
FN:7983,7986,_ZZN7httplib10ClientImpl26send_with_content_providerERNS_7RequestEPKcmSt8functionIFbmmRNS_8DataSinkEEES5_IFbmS7_EERKNSt7__cxx1112basic_stringIcSt11char_traitsIcESaIcEEERNS_5ErrorEENKUlS4_mE0_clES4_m
FN:8013,8031,_ZN7httplib10ClientImpl26send_with_content_providerERKNSt7__cxx1112basic_stringIcSt11char_traitsIcESaIcEEES8_RKSt18unordered_multimapIS6_S6_NS_6detail11case_ignore4hashENSB_8equal_toESaISt4pairIS7_S6_EEEPKcmSt8functionIFbmmRNS_8DataSinkEEESM_IFbmSO_EES8_SM_IFbmmEE
FN:8034,8037,_ZNK7httplib10ClientImpl18adjust_host_stringERKNSt7__cxx1112basic_stringIcSt11char_traitsIcESaIcEEE
FN:8039,8128,_ZN7httplib10ClientImpl15process_requestERNS_6StreamERNS_7RequestERNS_8ResponseEbRNS_5ErrorE
FN:8081,8086,_ZZN7httplib10ClientImpl15process_requestERNS_6StreamERNS_7RequestERNS_8ResponseEbRNS_5ErrorEENKUlPKcmmmE_clESA_mmm
FN:8088,8093,_ZZN7httplib10ClientImpl15process_requestERNS_6StreamERNS_7RequestERNS_8ResponseEbRNS_5ErrorEENKUlPKcmmmE0_clESA_mmm
FN:8095,8100,_ZZN7httplib10ClientImpl15process_requestERNS_6StreamERNS_7RequestERNS_8ResponseEbRNS_5ErrorEENKUlmmE_clEmm
FN:8175,8180,_ZN7httplib10ClientImpl14process_socketERKNS0_6SocketESt8functionIFbRNS_6StreamEEE
FN:8182,8182,_ZNK7httplib10ClientImpl6is_sslEv
FN:8184,8186,_ZN7httplib10ClientImpl3GetERKNSt7__cxx1112basic_stringIcSt11char_traitsIcESaIcEEE
FN:8196,8205,_ZN7httplib10ClientImpl3GetERKNSt7__cxx1112basic_stringIcSt11char_traitsIcESaIcEEERKSt18unordered_multimapIS6_S6_NS_6detail11case_ignore4hashENSB_8equal_toESaISt4pairIS7_S6_EEESt8functionIFbmmEE
FN:8347,8350,_ZN7httplib10ClientImpl4PostERKNSt7__cxx1112basic_stringIcSt11char_traitsIcESaIcEEES8_S8_
FN:8358,8364,_ZN7httplib10ClientImpl4PostERKNSt7__cxx1112basic_stringIcSt11char_traitsIcESaIcEEERKSt18unordered_multimapIS6_S6_NS_6detail11case_ignore4hashENSB_8equal_toESaISt4pairIS7_S6_EEES8_S8_
FN:853,853,_ZN7httplib6detail11MatcherBaseD0Ev
FN:853,853,_ZN7httplib6detail11MatcherBaseD2Ev
FN:8820,8823,_ZN7httplib10ClientImpl16set_read_timeoutEll
FN:8971,8999,_ZN7httplib6detail7ssl_newIZNS_9SSLClient14initialize_sslERNS_10ClientImpl6SocketERNS_5ErrorEEUlP6ssl_stE_ZNS2_14initialize_sslES5_S7_EUlS9_E0_EES9_iP10ssl_ctx_stRSt5mutexT_T0_
FN:8971,8999,_ZN7httplib6detail7ssl_newIZNS_9SSLServer24process_and_close_socketEiEUlP6ssl_stE_ZNS2_24process_and_close_socketEiEUlS4_E0_EES4_iP10ssl_ctx_stRSt5mutexT_T0_
FN:9001,9028,_ZN7httplib6detail10ssl_deleteERSt5mutexP6ssl_stib
FN:9031,9050,_ZN7httplib6detail33ssl_connect_or_accept_nonblockingIPFiP6ssl_stEEEbiS3_T_ll
FN:9053,9065,_ZN7httplib6detail25process_server_socket_sslIZNS_9SSLServer24process_and_close_socketEiEUlRNS_6StreamEbRbE_EEbRKSt6atomicIiEP6ssl_stimlllllT_
FN:9060,9060,_ZZN7httplib6detail25process_server_socket_sslIZNS_9SSLServer24process_and_close_socketEiEUlRNS_6StreamEbRbE_EEbRKSt6atomicIiEP6ssl_stimlllllT_ENKUlbS5_E_clEbS5_
FN:9069,9075,_ZN7httplib6detail25process_client_socket_sslISt8functionIFbRNS_6StreamEEEEEbP6ssl_stillllT_
FN:9079,9082,_ZN7httplib6detail7SSLInitC2Ev
FN:9086,9096,_ZN7httplib6detail15SSLSocketStreamC2EiP6ssl_stllll
FN:9098,9098,_ZN7httplib6detail15SSLSocketStreamD0Ev
FN:9098,9098,_ZN7httplib6detail15SSLSocketStreamD2Ev
FN:9100,9102,_ZNK7httplib6detail15SSLSocketStream11is_readableEv
FN:9104,9107,_ZNK7httplib6detail15SSLSocketStream11is_writableEv
FN:9109,9139,_ZN7httplib6detail15SSLSocketStream4readEPcm
FN:9141,9170,_ZN7httplib6detail15SSLSocketStream5writeEPKcm
FN:9172,9175,_ZNK7httplib6detail15SSLSocketStream22get_remote_ip_and_portERNSt7__cxx1112basic_stringIcSt11char_traitsIcESaIcEEERi
FN:9177,9180,_ZNK7httplib6detail15SSLSocketStream21get_local_ip_and_portERNSt7__cxx1112basic_stringIcSt11char_traitsIcESaIcEEERi
FN:9182,9182,_ZNK7httplib6detail15SSLSocketStream6socketEv
FN:9259,9261,_ZN7httplib9SSLServerD0Ev
FN:9259,9261,_ZN7httplib9SSLServerD2Ev
FN:9263,9263,_ZNK7httplib9SSLServer8is_validEv
FN:9280,9319,_ZN7httplib9SSLServer24process_and_close_socketEi
FN:9283,9286,_ZZN7httplib9SSLServer24process_and_close_socketEiENKUlP6ssl_stE_clES2_
FN:9287,9287,_ZZN7httplib9SSLServer24process_and_close_socketEiENKUlP6ssl_stE0_clES2_
FN:9303,9308,_ZZN7httplib9SSLServer24process_and_close_socketEiENKUlRNS_6StreamEbRbE_clES2_bS3_
FN:9307,9307,_ZZZN7httplib9SSLServer24process_and_close_socketEiENKUlRNS_6StreamEbRbE_clES2_bS3_ENKUlRNS_7RequestEE_clES6_
FN:9325,9326,_ZN7httplib9SSLClientC2ERKNSt7__cxx1112basic_stringIcSt11char_traitsIcESaIcEEEi
FN:9328,9357,_ZN7httplib9SSLClientC2ERKNSt7__cxx1112basic_stringIcSt11char_traitsIcESaIcEEEiS8_S8_S8_
FN:9338,9340,_ZZN7httplib9SSLClientC4ERKNSt7__cxx1112basic_stringIcSt11char_traitsIcESaIcEEEiS8_S8_S8_ENKUlPKcSA_E_clESA_SA_
FN:9385,9391,_ZN7httplib9SSLClientD0Ev
FN:9385,9391,_ZN7httplib9SSLClientD2Ev
FN:9393,9393,_ZNK7httplib9SSLClient8is_validEv
FN:9395,9406,_ZN7httplib9SSLClient17set_ca_cert_storeEP13x509_store_st
FN:9419,9421,_ZN7httplib9SSLClient25create_and_connect_socketERNS_10ClientImpl6SocketERNS_5ErrorE
FN:9424,9490,_ZN7httplib9SSLClient18connect_with_proxyERNS_10ClientImpl6SocketERNS_8ResponseERbRNS_5ErrorE
FN:9430,9435,_ZZN7httplib9SSLClient18connect_with_proxyERNS_10ClientImpl6SocketERNS_8ResponseERbRNS_5ErrorEENKUlRNS_6StreamEE_clESA_
FN:9453,9462,_ZZN7httplib9SSLClient18connect_with_proxyERNS_10ClientImpl6SocketERNS_8ResponseERbRNS_5ErrorEENKUlRNS_6StreamEE0_clESA_
FN:9492,9522,_ZN7httplib9SSLClient10load_certsEv
FN:9495,9519,_ZZN7httplib9SSLClient10load_certsEvENKUlvE_clEv
FN:9524,9596,_ZN7httplib9SSLClient14initialize_sslERNS_10ClientImpl6SocketERNS_5ErrorE
FN:9527,9575,_ZZN7httplib9SSLClient14initialize_sslERNS_10ClientImpl6SocketERNS_5ErrorEENKUlP6ssl_stE_clES7_
FN:9558,9558,_ZZZN7httplib9SSLClient14initialize_sslERNS_10ClientImpl6SocketERNS_5ErrorEENKUlP6ssl_stE_clES7_ENKUlvE_clEv
FN:9576,9586,_ZZN7httplib9SSLClient14initialize_sslERNS_10ClientImpl6SocketERNS_5ErrorEENKUlP6ssl_stE0_clES7_
FN:9598,9600,_ZN7httplib9SSLClient12shutdown_sslERNS_10ClientImpl6SocketEb
FN:9602,9614,_ZN7httplib9SSLClient17shutdown_ssl_implERNS_10ClientImpl6SocketEb
FN:9617,9623,_ZN7httplib9SSLClient14process_socketERKNS_10ClientImpl6SocketESt8functionIFbRNS_6StreamEEE
FN:9625,9625,_ZNK7httplib9SSLClient6is_sslEv
FN:9627,9651,_ZNK7httplib9SSLClient11verify_hostEP7x509_st
FN:9654,9708,_ZNK7httplib9SSLClient33verify_host_with_subject_alt_nameEP7x509_st
FN:9710,9724,_ZNK7httplib9SSLClient28verify_host_with_common_nameEP7x509_st
FN:9726,9752,_ZNK7httplib9SSLClient15check_host_nameEPKcm
FN:9734,9736,_ZZNK7httplib9SSLClient15check_host_nameEPKcmENKUlS2_S2_E_clES2_S2_
FN:9756,9757,_ZN7httplib6ClientC2ERKNSt7__cxx1112basic_stringIcSt11char_traitsIcESaIcEEE
FN:9759,9805,_ZN7httplib6ClientC2ERKNSt7__cxx1112basic_stringIcSt11char_traitsIcESaIcEEES8_S8_
FN:9816,9816,_ZN7httplib6ClientD2Ev
FN:9822,9822,_ZN7httplib6Client3GetERKNSt7__cxx1112basic_stringIcSt11char_traitsIcESaIcEEE
FN:9917,9920,_ZN7httplib6Client4PostERKNSt7__cxx1112basic_stringIcSt11char_traitsIcESaIcEEES8_S8_
FNDA:3,_ZN7httplib6Client16set_read_timeoutEll
FNDA:3,_ZN7httplib6ResultC2EOSt10unique_ptrINS_8ResponseESt14default_deleteIS2_EENS_5ErrorEOSt18unordered_multimapINSt7__cxx1112basic_stringIcSt11char_traitsIcESaIcEEESE_NS_6detail11case_ignore4hashENSG_8equal_toESaISt4pairIKSE_SE_EEE
FNDA:3,_ZNK7httplib6ResultcvbEv
FNDA:3,_ZN7httplib6ResultptEv
FNDA:3,_ZNK7httplib10ClientImpl6Socket7is_openEv
FNDA:6,_ZN7httplib6detail10is_numericERKNSt7__cxx1112basic_stringIcSt11char_traitsIcESaIcEEE
FNDA:6,_ZN7httplib6detail20get_header_value_u64ERKSt18unordered_multimapINSt7__cxx1112basic_stringIcSt11char_traitsIcESaIcEEES7_NS0_11case_ignore4hashENS8_8equal_toESaISt4pairIKS7_S7_EEERSC_mmRb
FNDA:3,_ZN7httplib6detail20get_header_value_u64ERKSt18unordered_multimapINSt7__cxx1112basic_stringIcSt11char_traitsIcESaIcEEES7_NS0_11case_ignore4hashENS8_8equal_toESaISt4pairIKS7_S7_EEERSC_mm
FNDA:0,_ZNK7httplib7Request20get_header_value_u64ERKNSt7__cxx1112basic_stringIcSt11char_traitsIcESaIcEEEmm
FNDA:3,_ZNK7httplib8Response20get_header_value_u64ERKNSt7__cxx1112basic_stringIcSt11char_traitsIcESaIcEEEmm
FNDA:0,_ZN7httplib14status_messageEi
FNDA:3,_ZN7httplib6detail12BufferStreamC2Ev
FNDA:0,_ZN7httplib6detail12BufferStreamD0Ev
FNDA:3,_ZN7httplib6detail12BufferStreamD2Ev
FNDA:0,_ZN7httplib6detail10compressorD0Ev
FNDA:0,_ZN7httplib6detail10compressorD2Ev
FNDA:0,_ZN7httplib6detail12decompressorD0Ev
FNDA:0,_ZN7httplib6detail12decompressorD2Ev
FNDA:0,_ZN7httplib6detail12nocompressorD0Ev
FNDA:0,_ZN7httplib6detail12nocompressorD2Ev
FNDA:135,_ZN7httplib6detail6fields13is_token_charEc
FNDA:15,_ZN7httplib6detail6fields8is_tokenERKNSt7__cxx1112basic_stringIcSt11char_traitsIcESaIcEEE
FNDA:15,_ZN7httplib6detail6fields13is_field_nameERKNSt7__cxx1112basic_stringIcSt11char_traitsIcESaIcEEE
FNDA:342,_ZN7httplib6detail6fields8is_vcharEc
FNDA:0,_ZN7httplib6detail6fields11is_obs_textEc
FNDA:342,_ZN7httplib6detail6fields14is_field_vcharEc
FNDA:27,_ZN7httplib6detail6fields16is_field_contentERKNSt7__cxx1112basic_stringIcSt11char_traitsIcESaIcEEE
FNDA:27,_ZN7httplib6detail6fields14is_field_valueERKNSt7__cxx1112basic_stringIcSt11char_traitsIcESaIcEEE
FNDA:0,_ZN7httplib6detail6is_hexEcRi
FNDA:0,_ZN7httplib6detail13from_hex_to_iERKNSt7__cxx1112basic_stringIcSt11char_traitsIcESaIcEEEmmRi
FNDA:0,_ZN7httplib6detail13from_i_to_hexB5cxx11Em
FNDA:0,_ZN7httplib6detail7to_utf8EiPc
FNDA:0,_ZN7httplib6detail13base64_encodeERKNSt7__cxx1112basic_stringIcSt11char_traitsIcESaIcEEE
FNDA:0,_ZN7httplib6detail13is_valid_pathERKNSt7__cxx1112basic_stringIcSt11char_traitsIcESaIcEEE
FNDA:0,_ZN7httplib6detail8FileStatC2ERKNSt7__cxx1112basic_stringIcSt11char_traitsIcESaIcEEE
FNDA:0,_ZNK7httplib6detail8FileStat7is_fileEv
FNDA:0,_ZNK7httplib6detail8FileStat6is_dirEv
FNDA:0,_ZN7httplib6detail18encode_query_paramERKNSt7__cxx1112basic_stringIcSt11char_traitsIcESaIcEEE
FNDA:3,_ZN7httplib6detail10encode_urlERKNSt7__cxx1112basic_stringIcSt11char_traitsIcESaIcEEE
FNDA:12,_ZN7httplib6detail10decode_urlERKNSt7__cxx1112basic_stringIcSt11char_traitsIcESaIcEEEb
FNDA:0,_ZN7httplib6detail14file_extensionERKNSt7__cxx1112basic_stringIcSt11char_traitsIcESaIcEEE
FNDA:36,_ZN7httplib6detail15is_space_or_tabEc
FNDA:0,_ZN7httplib6detail4trimEPKcS2_mm
FNDA:0,_ZN7httplib6detail9trim_copyERKNSt7__cxx1112basic_stringIcSt11char_traitsIcESaIcEEE
FNDA:0,_ZN7httplib6detail23trim_double_quotes_copyERKNSt7__cxx1112basic_stringIcSt11char_traitsIcESaIcEEE
FNDA:0,_ZN7httplib6detail6divideEPKcmcSt8functionIFvS2_mS2_mEE
FNDA:0,_ZN7httplib6detail6divideERKNSt7__cxx1112basic_stringIcSt11char_traitsIcESaIcEEEcSt8functionIFvPKcmSB_mEE
FNDA:0,_ZN7httplib6detail5splitEPKcS2_cSt8functionIFvS2_S2_EE
FNDA:0,_ZN7httplib6detail5splitEPKcS2_cmSt8functionIFvS2_S2_EE
FNDA:6,_ZN7httplib6detail18stream_line_readerC2ERNS_6StreamEPcm
FNDA:42,_ZNK7httplib6detail18stream_line_reader3ptrEv
FNDA:69,_ZNK7httplib6detail18stream_line_reader4sizeEv
FNDA:15,_ZNK7httplib6detail18stream_line_reader13end_with_crlfEv
FNDA:18,_ZN7httplib6detail18stream_line_reader7getlineEv
FNDA:426,_ZN7httplib6detail18stream_line_reader6appendEc
FNDA:0,_ZN7httplib6detail4mmapC2EPKc
FNDA:0,_ZN7httplib6detail4mmapD2Ev
FNDA:0,_ZN7httplib6detail4mmap4openEPKc
FNDA:0,_ZNK7httplib6detail4mmap7is_openEv
FNDA:0,_ZNK7httplib6detail4mmap4sizeEv
FNDA:0,_ZNK7httplib6detail4mmap4dataEv
FNDA:0,_ZN7httplib6detail4mmap5closeEv
FNDA:3,_ZN7httplib6detail12close_socketEi
FNDA:3,_ZN7httplib6detail12handle_EINTRIZNS0_11read_socketEiPvmiEUlvE_EElT_
FNDA:6,_ZN7httplib6detail12handle_EINTRIZNS0_11select_readEillEUlvE_EElT_
FNDA:3,_ZN7httplib6detail12handle_EINTRIZNS0_11send_socketEiPKvmiEUlvE_EElT_
FNDA:3,_ZN7httplib6detail12handle_EINTRIZNS0_12select_writeEillEUlvE_EElT_
FNDA:3,_ZN7httplib6detail12handle_EINTRIZNS0_26wait_until_socket_is_readyEillEUlvE_EElT_
FNDA:3,_ZN7httplib6detail11read_socketEiPvmi
FNDA:3,_ZZN7httplib6detail11read_socketEiPvmiENKUlvE_clEv
FNDA:3,_ZN7httplib6detail11send_socketEiPKvmi
FNDA:3,_ZZN7httplib6detail11send_socketEiPKvmiENKUlvE_clEv
FNDA:6,_ZN7httplib6detail11select_readEill
FNDA:6,_ZZN7httplib6detail11select_readEillENKUlvE_clEv
FNDA:3,_ZN7httplib6detail12select_writeEill
FNDA:3,_ZZN7httplib6detail12select_writeEillENKUlvE_clEv
FNDA:3,_ZN7httplib6detail26wait_until_socket_is_readyEill
FNDA:3,_ZZN7httplib6detail26wait_until_socket_is_readyEillENKUlvE_clEv
FNDA:3,_ZN7httplib6detail15is_socket_aliveEi
FNDA:0,_ZN7httplib6detail11make_uniqueINS0_12nocompressorEJEEENSt9enable_ifIXntsrSt8is_arrayIT_E5valueESt10unique_ptrIS5_St14default_deleteIS5_EEE4typeEDpOT0_
FNDA:0,_ZN7httplib6detail11make_uniqueINS0_15gzip_compressorEJEEENSt9enable_ifIXntsrSt8is_arrayIT_E5valueESt10unique_ptrIS5_St14default_deleteIS5_EEE4typeEDpOT0_
FNDA:0,_ZN7httplib6detail11make_uniqueINS0_17gzip_decompressorEJEEENSt9enable_ifIXntsrSt8is_arrayIT_E5valueESt10unique_ptrIS5_St14default_deleteIS5_EEE4typeEDpOT0_
FNDA:0,_ZN7httplib6detail11make_uniqueINS_10ClientImplEJRKNSt7__cxx1112basic_stringIcSt11char_traitsIcESaIcEEEiSA_SA_EEENSt9enable_ifIXntsrSt8is_arrayIT_E5valueESt10unique_ptrISD_St14default_deleteISD_EEE4typeEDpOT0_
FNDA:3,_ZN7httplib6detail11make_uniqueINS_10ClientImplEJRNSt7__cxx1112basic_stringIcSt11char_traitsIcESaIcEEERiRKS8_SC_EEENSt9enable_ifIXntsrSt8is_arrayIT_E5valueESt10unique_ptrISF_St14default_deleteISF_EEE4typeEDpOT0_
FNDA:3,_ZN7httplib6detail11make_uniqueINS_8ResponseEJEEENSt9enable_ifIXntsrSt8is_arrayIT_E5valueESt10unique_ptrIS5_St14default_deleteIS5_EEE4typeEDpOT0_
FNDA:0,_ZN7httplib6detail11make_uniqueINS_9SSLClientEJRNSt7__cxx1112basic_stringIcSt11char_traitsIcESaIcEEERiRKS8_SC_EEENSt9enable_ifIXntsrSt8is_arrayIT_E5valueESt10unique_ptrISF_St14default_deleteISF_EEE4typeEDpOT0_
FNDA:0,_ZN7httplib6detail10keep_aliveERKSt6atomicIiEil
FNDA:0,_ZN7httplib6detail26process_server_socket_coreIZNS0_21process_server_socketIZNS_6Server24process_and_close_socketEiEUlRNS_6StreamEbRbE_EEbRKSt6atomicIiEimlllllT_EUlbS6_E_EEbSB_imlSC_
FNDA:0,_ZN7httplib6detail26process_server_socket_coreIZNS0_25process_server_socket_sslIZNS_9SSLServer24process_and_close_socketEiEUlRNS_6StreamEbRbE_EEbRKSt6atomicIiEP6ssl_stimlllllT_EUlbS6_E_EEbSB_imlSE_
FNDA:0,_ZN7httplib6detail21process_server_socketIZNS_6Server24process_and_close_socketEiEUlRNS_6StreamEbRbE_EEbRKSt6atomicIiEimlllllT_
FNDA:0,_ZZN7httplib6detail21process_server_socketIZNS_6Server24process_and_close_socketEiEUlRNS_6StreamEbRbE_EEbRKSt6atomicIiEimlllllT_ENKUlbS5_E_clEbS5_
FNDA:3,_ZN7httplib6detail21process_client_socketEillllSt8functionIFbRNS_6StreamEEE
FNDA:3,_ZN7httplib6detail15shutdown_socketEi
FNDA:3,_ZN7httplib6detail37escape_abstract_namespace_unix_domainERKNSt7__cxx1112basic_stringIcSt11char_traitsIcESaIcEEE
FNDA:0,_ZN7httplib6detail39unescape_abstract_namespace_unix_domainERKNSt7__cxx1112basic_stringIcSt11char_traitsIcESaIcEEE
FNDA:3,_ZN7httplib6detail13create_socketIZNS0_20create_client_socketERKNSt7__cxx1112basic_stringIcSt11char_traitsIcESaIcEEES9_iibbSt8functionIFviEEllllllS9_RNS_5ErrorEEUliR8addrinfoRbE_EEiS9_S9_iiibbSC_T_
FNDA:1053,_ZN7httplib6detail11case_ignore8to_lowerEi
FNDA:3,_ZZN7httplib6detail13create_socketIZNS0_20create_client_socketERKNSt7__cxx1112basic_stringIcSt11char_traitsIcESaIcEEES9_iibbSt8functionIFviEEllllllS9_RNS_5ErrorEEUliR8addrinfoRbE_EEiS9_S9_iiibbSC_T_ENKUlvE_clEv
FNDA:6,_ZN7httplib6detail15set_nonblockingEib
FNDA:3,_ZN7httplib6detail19is_connection_errorEv
FNDA:0,_ZN7httplib6detail15bind_ip_addressEiRKNSt7__cxx1112basic_stringIcSt11char_traitsIcESaIcEEE
FNDA:0,_ZZN7httplib6detail15bind_ip_addressEiRKNSt7__cxx1112basic_stringIcSt11char_traitsIcESaIcEEEENKUlvE_clEv
FNDA:0,_ZN7httplib6detail5if2ipEiRKNSt7__cxx1112basic_stringIcSt11char_traitsIcESaIcEEE
FNDA:0,_ZZN7httplib6detail5if2ipEiRKNSt7__cxx1112basic_stringIcSt11char_traitsIcESaIcEEEENKUlvE_clEv
FNDA:3,_ZN7httplib6detail20create_client_socketERKNSt7__cxx1112basic_stringIcSt11char_traitsIcESaIcEEES8_iibbSt8functionIFviEEllllllS8_RNS_5ErrorE
FNDA:3,_ZZN7httplib6detail20create_client_socketERKNSt7__cxx1112basic_stringIcSt11char_traitsIcESaIcEEES8_iibbSt8functionIFviEEllllllS8_RNS_5ErrorEENKUliR8addrinfoRbE_clEiSF_SG_
FNDA:42,_ZN7httplib6detail11case_ignore5equalERKNSt7__cxx1112basic_stringIcSt11char_traitsIcESaIcEEES9_
FNDA:198,_ZZN7httplib6detail11case_ignore5equalERKNSt7__cxx1112basic_stringIcSt11char_traitsIcESaIcEEES9_ENKUlccE_clEcc
FNDA:0,_ZN7httplib6detail15get_ip_and_portERK16sockaddr_storagejRNSt7__cxx1112basic_stringIcSt11char_traitsIcESaIcEEERi
FNDA:15,_ZNK7httplib6detail11case_ignore8equal_toclERKNSt7__cxx1112basic_stringIcSt11char_traitsIcESaIcEEESA_
FNDA:0,_ZN7httplib6detail21get_local_ip_and_portEiRNSt7__cxx1112basic_stringIcSt11char_traitsIcESaIcEEERi
FNDA:0,_ZN7httplib6detail22get_remote_ip_and_portEiRNSt7__cxx1112basic_stringIcSt11char_traitsIcESaIcEEERi
FNDA:0,_ZN7httplib6detail12str2tag_coreEPKcmj
FNDA:0,_ZN7httplib6detail7str2tagERKNSt7__cxx1112basic_stringIcSt11char_traitsIcESaIcEEE
FNDA:60,_ZNK7httplib6detail11case_ignore4hashclERKNSt7__cxx1112basic_stringIcSt11char_traitsIcESaIcEEE
FNDA:0,_ZN7httplib6detail17find_content_typeERKNSt7__cxx1112basic_stringIcSt11char_traitsIcESaIcEEERKSt3mapIS6_S6_St4lessIS6_ESaISt4pairIS7_S6_EEES8_
FNDA:717,_ZNK7httplib6detail11case_ignore4hash9hash_coreEPKcmm
FNDA:0,_ZN7httplib6detail25can_compress_content_typeERKNSt7__cxx1112basic_stringIcSt11char_traitsIcESaIcEEE
FNDA:0,_ZN7httplib6detail13encoding_typeERKNS_7RequestERKNS_8ResponseE
FNDA:0,_ZN7httplib6detail12nocompressor8compressEPKcmbSt8functionIFbS3_mEE
FNDA:0,_ZN7httplib6detail15gzip_compressorC2Ev
FNDA:0,_ZN7httplib6detail15gzip_compressorD0Ev
FNDA:0,_ZN7httplib6detail15gzip_compressorD2Ev
FNDA:0,_ZN7httplib6detail15gzip_compressor8compressEPKcmbSt8functionIFbS3_mEE
FNDA:0,_ZN7httplib6detail17gzip_decompressorC2Ev
FNDA:0,_ZN7httplib6detail17gzip_decompressorD0Ev
FNDA:0,_ZN7httplib6detail17gzip_decompressorD2Ev
FNDA:0,_ZNK7httplib6detail17gzip_decompressor8is_validEv
FNDA:0,_ZN7httplib6detail17gzip_decompressor10decompressEPKcmSt8functionIFbS3_mEE
FNDA:6,_ZN7httplib6detail10scope_exitC2EOSt8functionIFvvEE
FNDA:6,_ZN7httplib6detail10scope_exitD2Ev
FNDA:18,_ZN7httplib6detail10has_headerERKSt18unordered_multimapINSt7__cxx1112basic_stringIcSt11char_traitsIcESaIcEEES7_NS0_11case_ignore4hashENS8_8equal_toESaISt4pairIKS7_S7_EEERSC_
FNDA:9,_ZN7httplib6detail16get_header_valueERKSt18unordered_multimapINSt7__cxx1112basic_stringIcSt11char_traitsIcESaIcEEES7_NS0_11case_ignore4hashENS8_8equal_toESaISt4pairIKS7_S7_EEERSC_PKcm
FNDA:12,_ZN7httplib6detail12parse_headerIZNS0_12read_headersERNS_6StreamERSt18unordered_multimapINSt7__cxx1112basic_stringIcSt11char_traitsIcESaIcEEESA_NS0_11case_ignore4hashENSB_8equal_toESaISt4pairIKSA_SA_EEEEUlRSF_SK_E_EEbPKcSN_T_
FNDA:0,_ZN7httplib6detail12parse_headerIZNS0_20read_content_chunkedINS_7RequestEEEbRNS_6StreamERT_St8functionIFbPKcmmmEEEUlRKNSt7__cxx1112basic_stringIcSt11char_traitsIcESaIcEEESK_E_EEbSA_SA_S6_
FNDA:0,_ZN7httplib6detail12parse_headerIZNS0_20read_content_chunkedINS_8ResponseEEEbRNS_6StreamERT_St8functionIFbPKcmmmEEEUlRKNSt7__cxx1112basic_stringIcSt11char_traitsIcESaIcEEESK_E_EEbSA_SA_S6_
FNDA:0,_ZN7httplib6detail12parse_headerIZNS0_23MultipartFormDataParser5parseEPKcmRKSt8functionIFbS4_mEERKS5_IFbRKNS_17MultipartFormDataEEEEUlRKNSt7__cxx1112basic_stringIcSt11char_traitsIcESaIcEEESO_E_EEbS4_S4_T_
FNDA:3,_ZN7httplib6detail12read_headersERNS_6StreamERSt18unordered_multimapINSt7__cxx1112basic_stringIcSt11char_traitsIcESaIcEEES9_NS0_11case_ignore4hashENSA_8equal_toESaISt4pairIKS9_S9_EEE
FNDA:12,_ZZN7httplib6detail12read_headersERNS_6StreamERSt18unordered_multimapINSt7__cxx1112basic_stringIcSt11char_traitsIcESaIcEEES9_NS0_11case_ignore4hashENSA_8equal_toESaISt4pairIKS9_S9_EEEENKUlRSE_SJ_E_clESJ_SJ_
FNDA:3,_ZN7httplib6detail24read_content_with_lengthERNS_6StreamEmSt8functionIFbmmEES3_IFbPKcmmmEE
FNDA:0,_ZN7httplib6detail24skip_content_with_lengthERNS_6StreamEm
FNDA:0,_ZN7httplib6detail27read_content_without_lengthERNS_6StreamESt8functionIFbPKcmmmEE
FNDA:0,_ZN7httplib6detail20read_content_chunkedINS_7RequestEEEbRNS_6StreamERT_St8functionIFbPKcmmmEE
FNDA:0,_ZN7httplib6detail20read_content_chunkedINS_8ResponseEEEbRNS_6StreamERT_St8functionIFbPKcmmmEE
FNDA:0,_ZZN7httplib6detail20read_content_chunkedINS_7RequestEEEbRNS_6StreamERT_St8functionIFbPKcmmmEEENKUlRKNSt7__cxx1112basic_stringIcSt11char_traitsIcESaIcEEESJ_E_clESJ_SJ_
FNDA:0,_ZZN7httplib6detail20read_content_chunkedINS_8ResponseEEEbRNS_6StreamERT_St8functionIFbPKcmmmEEENKUlRKNSt7__cxx1112basic_stringIcSt11char_traitsIcESaIcEEESJ_E_clESJ_SJ_
FNDA:3,_ZN7httplib6detail28is_chunked_transfer_encodingERKSt18unordered_multimapINSt7__cxx1112basic_stringIcSt11char_traitsIcESaIcEEES7_NS0_11case_ignore4hashENS8_8equal_toESaISt4pairIKS7_S7_EEE
FNDA:0,_ZN7httplib6detail24prepare_content_receiverINS_7RequestEZNS0_12read_contentIS2_EEbRNS_6StreamERT_mRiSt8functionIFbmmEES9_IFbPKcmmmEEbEUlRKSF_E_EEbS7_S8_SF_bT0_
FNDA:3,_ZN7httplib6detail24prepare_content_receiverINS_8ResponseEZNS0_12read_contentIS2_EEbRNS_6StreamERT_mRiSt8functionIFbmmEES9_IFbPKcmmmEEbEUlRKSF_E_EEbS7_S8_SF_bT0_
FNDA:0,_ZZN7httplib6detail24prepare_content_receiverINS_7RequestEZNS0_12read_contentIS2_EEbRNS_6StreamERT_mRiSt8functionIFbmmEES9_IFbPKcmmmEEbEUlRKSF_E_EEbS7_S8_SF_bT0_ENKUlSD_mmmE_clESD_mmm
FNDA:0,_ZZN7httplib6detail24prepare_content_receiverINS_8ResponseEZNS0_12read_contentIS2_EEbRNS_6StreamERT_mRiSt8functionIFbmmEES9_IFbPKcmmmEEbEUlRKSF_E_EEbS7_S8_SF_bT0_ENKUlSD_mmmE_clESD_mmm
FNDA:0,_ZZZN7httplib6detail24prepare_content_receiverINS_7RequestEZNS0_12read_contentIS2_EEbRNS_6StreamERT_mRiSt8functionIFbmmEES9_IFbPKcmmmEEbEUlRKSF_E_EEbS7_S8_SF_bT0_ENKUlSD_mmmE_clESD_mmmENKUlSD_mE_clESD_m
FNDA:0,_ZZZN7httplib6detail24prepare_content_receiverINS_8ResponseEZNS0_12read_contentIS2_EEbRNS_6StreamERT_mRiSt8functionIFbmmEES9_IFbPKcmmmEEbEUlRKSF_E_EEbS7_S8_SF_bT0_ENKUlSD_mmmE_clESD_mmmENKUlSD_mE_clESD_m
FNDA:0,_ZZN7httplib6detail24prepare_content_receiverINS_7RequestEZNS0_12read_contentIS2_EEbRNS_6StreamERT_mRiSt8functionIFbmmEES9_IFbPKcmmmEEbEUlRKSF_E_EEbS7_S8_SF_bT0_ENKUlSD_mmmE0_clESD_mmm
FNDA:3,_ZZN7httplib6detail24prepare_content_receiverINS_8ResponseEZNS0_12read_contentIS2_EEbRNS_6StreamERT_mRiSt8functionIFbmmEES9_IFbPKcmmmEEbEUlRKSF_E_EEbS7_S8_SF_bT0_ENKUlSD_mmmE0_clESD_mmm
FNDA:0,_ZN7httplib6detail12read_contentINS_7RequestEEEbRNS_6StreamERT_mRiSt8functionIFbmmEES8_IFbPKcmmmEEb
FNDA:3,_ZN7httplib6detail12read_contentINS_8ResponseEEEbRNS_6StreamERT_mRiSt8functionIFbmmEES8_IFbPKcmmmEEb
FNDA:0,_ZZN7httplib6detail12read_contentINS_7RequestEEEbRNS_6StreamERT_mRiSt8functionIFbmmEES8_IFbPKcmmmEEbENKUlRKSE_E_clESG_
FNDA:3,_ZZN7httplib6detail12read_contentINS_8ResponseEEEbRNS_6StreamERT_mRiSt8functionIFbmmEES8_IFbPKcmmmEEbENKUlRKSE_E_clESG_
FNDA:3,_ZN7httplib6detail18write_request_lineERNS_6StreamERKNSt7__cxx1112basic_stringIcSt11char_traitsIcESaIcEEESA_
FNDA:0,_ZN7httplib6detail19write_response_lineERNS_6StreamEi
FNDA:3,_ZN7httplib6detail13write_headersERNS_6StreamERKSt18unordered_multimapINSt7__cxx1112basic_stringIcSt11char_traitsIcESaIcEEES9_NS0_11case_ignore4hashENSA_8equal_toESaISt4pairIKS9_S9_EEE
FNDA:3,_ZN7httplib6detail10write_dataERNS_6StreamEPKcm
FNDA:3,_ZN7httplib6detail13write_contentIZNKS_10ClientImpl27write_content_with_providerERNS_6StreamERKNS_7RequestERNS_5ErrorEEUlvE_EEbS4_RKSt8functionIFbmmRNS_8DataSinkEEEmmT_S9_
FNDA:0,_ZN7httplib6detail13write_contentIZNS_6Server27write_content_with_providerERNS_6StreamERKNS_7RequestERNS_8ResponseERKNSt7__cxx1112basic_stringIcSt11char_traitsIcESaIcEEESH_EUlvE_EEbS4_RKSt8functionIFbmmRNS_8DataSinkEEEmmT_RNS_5ErrorE
FNDA:0,_ZZN7httplib6detail13write_contentIZNKS_10ClientImpl27write_content_with_providerERNS_6StreamERKNS_7RequestERNS_5ErrorEEUlvE_EEbS4_RKSt8functionIFbmmRNS_8DataSinkEEEmmT_S9_ENKUlPKcmE_clESK_m
FNDA:0,_ZZN7httplib6detail13write_contentIZNS_6Server27write_content_with_providerERNS_6StreamERKNS_7RequestERNS_8ResponseERKNSt7__cxx1112basic_stringIcSt11char_traitsIcESaIcEEESH_EUlvE_EEbS4_RKSt8functionIFbmmRNS_8DataSinkEEEmmT_RNS_5ErrorEENKUlPKcmE_clESU_m
FNDA:0,_ZZN7httplib6detail13write_contentIZNKS_10ClientImpl27write_content_with_providerERNS_6StreamERKNS_7RequestERNS_5ErrorEEUlvE_EEbS4_RKSt8functionIFbmmRNS_8DataSinkEEEmmT_S9_ENKUlvE_clEv
FNDA:0,_ZZN7httplib6detail13write_contentIZNS_6Server27write_content_with_providerERNS_6StreamERKNS_7RequestERNS_8ResponseERKNSt7__cxx1112basic_stringIcSt11char_traitsIcESaIcEEESH_EUlvE_EEbS4_RKSt8functionIFbmmRNS_8DataSinkEEEmmT_RNS_5ErrorEENKUlvE_clEv
FNDA:0,_ZN7httplib6detail13write_contentIZNS_6Server27write_content_with_providerERNS_6StreamERKNS_7RequestERNS_8ResponseERKNSt7__cxx1112basic_stringIcSt11char_traitsIcESaIcEEESH_EUlvE_EEbS4_RKSt8functionIFbmmRNS_8DataSinkEEEmmRKT_
FNDA:0,_ZN7httplib6detail28write_content_without_lengthIZNS_6Server27write_content_with_providerERNS_6StreamERKNS_7RequestERNS_8ResponseERKNSt7__cxx1112basic_stringIcSt11char_traitsIcESaIcEEESH_EUlvE_EEbS4_RKSt8functionIFbmmRNS_8DataSinkEEERKT_
FNDA:0,_ZZN7httplib6detail28write_content_without_lengthIZNS_6Server27write_content_with_providerERNS_6StreamERKNS_7RequestERNS_8ResponseERKNSt7__cxx1112basic_stringIcSt11char_traitsIcESaIcEEESH_EUlvE_EEbS4_RKSt8functionIFbmmRNS_8DataSinkEEERKT_ENKUlPKcmE_clESU_m
FNDA:0,_ZZN7httplib6detail28write_content_without_lengthIZNS_6Server27write_content_with_providerERNS_6StreamERKNS_7RequestERNS_8ResponseERKNSt7__cxx1112basic_stringIcSt11char_traitsIcESaIcEEESH_EUlvE_EEbS4_RKSt8functionIFbmmRNS_8DataSinkEEERKT_ENKUlvE_clEv
FNDA:0,_ZZN7httplib6detail28write_content_without_lengthIZNS_6Server27write_content_with_providerERNS_6StreamERKNS_7RequestERNS_8ResponseERKNSt7__cxx1112basic_stringIcSt11char_traitsIcESaIcEEESH_EUlvE_EEbS4_RKSt8functionIFbmmRNS_8DataSinkEEERKT_ENKUlvE0_clEv
FNDA:0,_ZN7httplib6detail21write_content_chunkedIZNKS_10ClientImpl27write_content_with_providerERNS_6StreamERKNS_7RequestERNS_5ErrorEEUlvE_NS0_10compressorEEEbS4_RKSt8functionIFbmmRNS_8DataSinkEEERKT_RT0_S9_
FNDA:0,_ZN7httplib6detail21write_content_chunkedIZNS_6Server27write_content_with_providerERNS_6StreamERKNS_7RequestERNS_8ResponseERKNSt7__cxx1112basic_stringIcSt11char_traitsIcESaIcEEESH_EUlvE_NS0_10compressorEEEbS4_RKSt8functionIFbmmRNS_8DataSinkEEERKT_RT0_RNS_5ErrorE
FNDA:0,_ZZN7httplib6detail21write_content_chunkedIZNKS_10ClientImpl27write_content_with_providerERNS_6StreamERKNS_7RequestERNS_5ErrorEEUlvE_NS0_10compressorEEEbS4_RKSt8functionIFbmmRNS_8DataSinkEEERKT_RT0_S9_ENKUlPKcmE_clESP_m
FNDA:0,_ZZN7httplib6detail21write_content_chunkedIZNS_6Server27write_content_with_providerERNS_6StreamERKNS_7RequestERNS_8ResponseERKNSt7__cxx1112basic_stringIcSt11char_traitsIcESaIcEEESH_EUlvE_NS0_10compressorEEEbS4_RKSt8functionIFbmmRNS_8DataSinkEEERKT_RT0_RNS_5ErrorEENKUlPKcmE_clESZ_m
FNDA:0,_ZZZN7httplib6detail21write_content_chunkedIZNKS_10ClientImpl27write_content_with_providerERNS_6StreamERKNS_7RequestERNS_5ErrorEEUlvE_NS0_10compressorEEEbS4_RKSt8functionIFbmmRNS_8DataSinkEEERKT_RT0_S9_ENKUlPKcmE_clESP_mENKUlSP_mE_clESP_m
FNDA:0,_ZZZN7httplib6detail21write_content_chunkedIZNS_6Server27write_content_with_providerERNS_6StreamERKNS_7RequestERNS_8ResponseERKNSt7__cxx1112basic_stringIcSt11char_traitsIcESaIcEEESH_EUlvE_NS0_10compressorEEEbS4_RKSt8functionIFbmmRNS_8DataSinkEEERKT_RT0_RNS_5ErrorEENKUlPKcmE_clESZ_mENKUlSZ_mE_clESZ_m
FNDA:0,_ZZN7httplib6detail21write_content_chunkedIZNKS_10ClientImpl27write_content_with_providerERNS_6StreamERKNS_7RequestERNS_5ErrorEEUlvE_NS0_10compressorEEEbS4_RKSt8functionIFbmmRNS_8DataSinkEEERKT_RT0_S9_ENKUlvE_clEv
FNDA:0,_ZZN7httplib6detail21write_content_chunkedIZNS_6Server27write_content_with_providerERNS_6StreamERKNS_7RequestERNS_8ResponseERKNSt7__cxx1112basic_stringIcSt11char_traitsIcESaIcEEESH_EUlvE_NS0_10compressorEEEbS4_RKSt8functionIFbmmRNS_8DataSinkEEERKT_RT0_RNS_5ErrorEENKUlvE_clEv
FNDA:0,_ZZN7httplib6detail21write_content_chunkedIZNKS_10ClientImpl27write_content_with_providerERNS_6StreamERKNS_7RequestERNS_5ErrorEEUlvE_NS0_10compressorEEEbS4_RKSt8functionIFbmmRNS_8DataSinkEEERKT_RT0_S9_ENKUlPKSt18unordered_multimapINSt7__cxx1112basic_stringIcSt11char_traitsIcESaIcEEESU_NS0_11case_ignore4hashENSV_8equal_toESaISt4pairIKSU_SU_EEEE_clES14_
FNDA:0,_ZZN7httplib6detail21write_content_chunkedIZNS_6Server27write_content_with_providerERNS_6StreamERKNS_7RequestERNS_8ResponseERKNSt7__cxx1112basic_stringIcSt11char_traitsIcESaIcEEESH_EUlvE_NS0_10compressorEEEbS4_RKSt8functionIFbmmRNS_8DataSinkEEERKT_RT0_RNS_5ErrorEENKUlPKSt18unordered_multimapISF_SF_NS0_11case_ignore4hashENSZ_8equal_toESaISt4pairISG_SF_EEEE_clES17_
FNDA:0,_ZZZN7httplib6detail21write_content_chunkedIZNKS_10ClientImpl27write_content_with_providerERNS_6StreamERKNS_7RequestERNS_5ErrorEEUlvE_NS0_10compressorEEEbS4_RKSt8functionIFbmmRNS_8DataSinkEEERKT_RT0_S9_ENKUlPKSt18unordered_multimapINSt7__cxx1112basic_stringIcSt11char_traitsIcESaIcEEESU_NS0_11case_ignore4hashENSV_8equal_toESaISt4pairIKSU_SU_EEEE_clES14_ENKUlPKcmE_clES17_m
FNDA:0,_ZZZN7httplib6detail21write_content_chunkedIZNS_6Server27write_content_with_providerERNS_6StreamERKNS_7RequestERNS_8ResponseERKNSt7__cxx1112basic_stringIcSt11char_traitsIcESaIcEEESH_EUlvE_NS0_10compressorEEEbS4_RKSt8functionIFbmmRNS_8DataSinkEEERKT_RT0_RNS_5ErrorEENKUlPKSt18unordered_multimapISF_SF_NS0_11case_ignore4hashENSZ_8equal_toESaISt4pairISG_SF_EEEE_clES17_ENKUlPKcmE_clES1A_m
FNDA:0,_ZZN7httplib6detail21write_content_chunkedIZNKS_10ClientImpl27write_content_with_providerERNS_6StreamERKNS_7RequestERNS_5ErrorEEUlvE_NS0_10compressorEEEbS4_RKSt8functionIFbmmRNS_8DataSinkEEERKT_RT0_S9_ENKUlvE0_clEv
FNDA:0,_ZZN7httplib6detail21write_content_chunkedIZNS_6Server27write_content_with_providerERNS_6StreamERKNS_7RequestERNS_8ResponseERKNSt7__cxx1112basic_stringIcSt11char_traitsIcESaIcEEESH_EUlvE_NS0_10compressorEEEbS4_RKSt8functionIFbmmRNS_8DataSinkEEERKT_RT0_RNS_5ErrorEENKUlvE0_clEv
FNDA:0,_ZZN7httplib6detail21write_content_chunkedIZNKS_10ClientImpl27write_content_with_providerERNS_6StreamERKNS_7RequestERNS_5ErrorEEUlvE_NS0_10compressorEEEbS4_RKSt8functionIFbmmRNS_8DataSinkEEERKT_RT0_S9_ENKUlRKSt18unordered_multimapINSt7__cxx1112basic_stringIcSt11char_traitsIcESaIcEEESU_NS0_11case_ignore4hashENSV_8equal_toESaISt4pairIKSU_SU_EEEE_clES14_
FNDA:0,_ZZN7httplib6detail21write_content_chunkedIZNS_6Server27write_content_with_providerERNS_6StreamERKNS_7RequestERNS_8ResponseERKNSt7__cxx1112basic_stringIcSt11char_traitsIcESaIcEEESH_EUlvE_NS0_10compressorEEEbS4_RKSt8functionIFbmmRNS_8DataSinkEEERKT_RT0_RNS_5ErrorEENKUlRKSt18unordered_multimapISF_SF_NS0_11case_ignore4hashENSZ_8equal_toESaISt4pairISG_SF_EEEE_clES17_
FNDA:0,_ZN7httplib6detail21write_content_chunkedIZNS_6Server27write_content_with_providerERNS_6StreamERKNS_7RequestERNS_8ResponseERKNSt7__cxx1112basic_stringIcSt11char_traitsIcESaIcEEESH_EUlvE_NS0_10compressorEEEbS4_RKSt8functionIFbmmRNS_8DataSinkEEERKT_RT0_
FNDA:0,_ZN7httplib6detail8redirectINS_10ClientImplEEEbRT_RNS_7RequestERNS_8ResponseERKNSt7__cxx1112basic_stringIcSt11char_traitsIcESaIcEEESG_RNS_5ErrorE
FNDA:0,_ZN7httplib6detail8redirectINS_9SSLClientEEEbRT_RNS_7RequestERNS_8ResponseERKNSt7__cxx1112basic_stringIcSt11char_traitsIcESaIcEEESG_RNS_5ErrorE
FNDA:0,_ZN7httplib6detail19params_to_query_strERKSt8multimapINSt7__cxx1112basic_stringIcSt11char_traitsIcESaIcEEES7_St4lessIS7_ESaISt4pairIKS7_S7_EEE
FNDA:0,_ZN7httplib6detail16parse_query_textEPKcmRSt8multimapINSt7__cxx1112basic_stringIcSt11char_traitsIcESaIcEEES9_St4lessIS9_ESaISt4pairIKS9_S9_EEE
FNDA:0,_ZZN7httplib6detail16parse_query_textEPKcmRSt8multimapINSt7__cxx1112basic_stringIcSt11char_traitsIcESaIcEEES9_St4lessIS9_ESaISt4pairIKS9_S9_EEEENKUlS2_S2_E_clES2_S2_
FNDA:0,_ZZZN7httplib6detail16parse_query_textEPKcmRSt8multimapINSt7__cxx1112basic_stringIcSt11char_traitsIcESaIcEEES9_St4lessIS9_ESaISt4pairIKS9_S9_EEEENKUlS2_S2_E_clES2_S2_ENKUlS2_mS2_mE_clES2_mS2_m
FNDA:0,_ZN7httplib6detail16parse_query_textERKNSt7__cxx1112basic_stringIcSt11char_traitsIcESaIcEEERSt8multimapIS6_S6_St4lessIS6_ESaISt4pairIS7_S6_EEE
FNDA:0,_ZN7httplib6detail24parse_multipart_boundaryERKNSt7__cxx1112basic_stringIcSt11char_traitsIcESaIcEEERS6_
FNDA:0,_ZN7httplib6detail24parse_disposition_paramsERKNSt7__cxx1112basic_stringIcSt11char_traitsIcESaIcEEERSt8multimapIS6_S6_St4lessIS6_ESaISt4pairIS7_S6_EEE
FNDA:0,_ZZN7httplib6detail24parse_disposition_paramsERKNSt7__cxx1112basic_stringIcSt11char_traitsIcESaIcEEERSt8multimapIS6_S6_St4lessIS6_ESaISt4pairIS7_S6_EEEENKUlPKcSI_E_clESI_SI_
FNDA:0,_ZZZN7httplib6detail24parse_disposition_paramsERKNSt7__cxx1112basic_stringIcSt11char_traitsIcESaIcEEERSt8multimapIS6_S6_St4lessIS6_ESaISt4pairIS7_S6_EEEENKUlPKcSI_E_clESI_SI_ENKUlSI_SI_E_clESI_SI_
FNDA:0,_ZN7httplib6detail18parse_range_headerERKNSt7__cxx1112basic_stringIcSt11char_traitsIcESaIcEEERSt6vectorISt4pairIllESaISB_EE
FNDA:0,_ZZN7httplib6detail18parse_range_headerERKNSt7__cxx1112basic_stringIcSt11char_traitsIcESaIcEEERSt6vectorISt4pairIllESaISB_EEENKUlS8_E_clES8_
FNDA:0,_ZZZN7httplib6detail18parse_range_headerERKNSt7__cxx1112basic_stringIcSt11char_traitsIcESaIcEEERSt6vectorISt4pairIllESaISB_EEENKUlS8_E_clES8_ENKUlhE_clEh
FNDA:0,_ZZN7httplib6detail18parse_range_headerERKNSt7__cxx1112basic_stringIcSt11char_traitsIcESaIcEEERSt6vectorISt4pairIllESaISB_EEENKUlPKcSG_E_clESG_SG_
FNDA:0,_ZN7httplib6detail23MultipartFormDataParserC2Ev
FNDA:0,_ZN7httplib6detail23MultipartFormDataParser12set_boundaryEONSt7__cxx1112basic_stringIcSt11char_traitsIcESaIcEEE
FNDA:0,_ZNK7httplib6detail23MultipartFormDataParser8is_validEv
FNDA:0,_ZN7httplib6detail23MultipartFormDataParser5parseEPKcmRKSt8functionIFbS3_mEERKS4_IFbRKNS_17MultipartFormDataEEE
FNDA:0,_ZZN7httplib6detail23MultipartFormDataParser5parseEPKcmRKSt8functionIFbS3_mEERKS4_IFbRKNS_17MultipartFormDataEEEENKUlRKNSt7__cxx1112basic_stringIcSt11char_traitsIcESaIcEEESN_E_clESN_SN_
FNDA:0,_ZN7httplib6detail23MultipartFormDataParser15clear_file_infoEv
FNDA:0,_ZNK7httplib6detail23MultipartFormDataParser22start_with_case_ignoreERKNSt7__cxx1112basic_stringIcSt11char_traitsIcESaIcEEES9_
FNDA:0,_ZNK7httplib6detail23MultipartFormDataParser10start_withERKNSt7__cxx1112basic_stringIcSt11char_traitsIcESaIcEEEmmS9_
FNDA:0,_ZNK7httplib6detail23MultipartFormDataParser8buf_sizeEv
FNDA:0,_ZNK7httplib6detail23MultipartFormDataParser8buf_dataEv
FNDA:0,_ZNK7httplib6detail23MultipartFormDataParser8buf_headB5cxx11Em
FNDA:0,_ZNK7httplib6detail23MultipartFormDataParser14buf_start_withERKNSt7__cxx1112basic_stringIcSt11char_traitsIcESaIcEEE
FNDA:0,_ZNK7httplib6detail23MultipartFormDataParser8buf_findERKNSt7__cxx1112basic_stringIcSt11char_traitsIcESaIcEEE
FNDA:0,_ZN7httplib6detail23MultipartFormDataParser10buf_appendEPKcm
FNDA:0,_ZN7httplib6detail23MultipartFormDataParser9buf_eraseEm
FNDA:0,_ZN7httplib6detail13random_stringB5cxx11Em
FNDA:0,_ZN7httplib6detail28make_multipart_data_boundaryB5cxx11Ev
FNDA:0,_ZN7httplib6detail11range_errorERNS_7RequestERNS_8ResponseE
FNDA:0,_ZN7httplib6detail27get_range_offset_and_lengthESt4pairIllEm
FNDA:0,_ZN7httplib6detail31make_content_range_header_fieldB5cxx11ERKSt4pairImmEm
FNDA:0,_ZN7httplib6detail29process_multipart_ranges_dataIZNS0_26make_multipart_ranges_dataERKNS_7RequestERNS_8ResponseERKNSt7__cxx1112basic_stringIcSt11char_traitsIcESaIcEEESE_mRSC_EUlSE_E_ZNS0_26make_multipart_ranges_dataES4_S6_SE_SE_mSF_EUlSE_E0_ZNS0_26make_multipart_ranges_dataES4_S6_SE_SE_mSF_EUlmmE_EEbS4_SE_SE_mT_T0_T1_
FNDA:0,_ZN7httplib6detail29process_multipart_ranges_dataIZNS0_27write_multipart_ranges_dataIZNS_6Server27write_content_with_providerERNS_6StreamERKNS_7RequestERNS_8ResponseERKNSt7__cxx1112basic_stringIcSt11char_traitsIcESaIcEEESI_EUlvE_EEbS5_S8_SA_SI_SI_mRKT_EUlSI_E_ZNS2_ISJ_EEbS5_S8_SA_SI_SI_mSM_EUlSI_E0_ZNS2_ISJ_EEbS5_S8_SA_SI_SI_mSM_EUlmmE_EEbS8_SI_SI_mSK_T0_T1_
FNDA:0,_ZN7httplib6detail29process_multipart_ranges_dataIZNS0_32get_multipart_ranges_data_lengthERKNS_7RequestERKNSt7__cxx1112basic_stringIcSt11char_traitsIcESaIcEEESC_mEUlSC_E_ZNS0_32get_multipart_ranges_data_lengthES4_SC_SC_mEUlSC_E0_ZNS0_32get_multipart_ranges_data_lengthES4_SC_SC_mEUlmmE_EEbS4_SC_SC_mT_T0_T1_
FNDA:3,_ZN7httplib8DataSinkC2Ev
FNDA:0,_ZN7httplib6detail26make_multipart_ranges_dataERKNS_7RequestERNS_8ResponseERKNSt7__cxx1112basic_stringIcSt11char_traitsIcESaIcEEESD_mRSB_
FNDA:0,_ZZN7httplib6detail26make_multipart_ranges_dataERKNS_7RequestERNS_8ResponseERKNSt7__cxx1112basic_stringIcSt11char_traitsIcESaIcEEESD_mRSB_ENKUlSD_E_clESD_
FNDA:0,_ZZN7httplib6detail26make_multipart_ranges_dataERKNS_7RequestERNS_8ResponseERKNSt7__cxx1112basic_stringIcSt11char_traitsIcESaIcEEESD_mRSB_ENKUlSD_E0_clESD_
FNDA:0,_ZZN7httplib6detail26make_multipart_ranges_dataERKNS_7RequestERNS_8ResponseERKNSt7__cxx1112basic_stringIcSt11char_traitsIcESaIcEEESD_mRSB_ENKUlmmE_clEmm
FNDA:0,_ZN7httplib6detail32get_multipart_ranges_data_lengthERKNS_7RequestERKNSt7__cxx1112basic_stringIcSt11char_traitsIcESaIcEEESB_m
FNDA:0,_ZZN7httplib6detail32get_multipart_ranges_data_lengthERKNS_7RequestERKNSt7__cxx1112basic_stringIcSt11char_traitsIcESaIcEEESB_mENKUlSB_E_clESB_
FNDA:0,_ZZN7httplib6detail32get_multipart_ranges_data_lengthERKNS_7RequestERKNSt7__cxx1112basic_stringIcSt11char_traitsIcESaIcEEESB_mENKUlSB_E0_clESB_
FNDA:0,_ZZN7httplib6detail32get_multipart_ranges_data_lengthERKNS_7RequestERKNSt7__cxx1112basic_stringIcSt11char_traitsIcESaIcEEESB_mENKUlmmE_clEmm
FNDA:0,_ZN7httplib6detail27write_multipart_ranges_dataIZNS_6Server27write_content_with_providerERNS_6StreamERKNS_7RequestERNS_8ResponseERKNSt7__cxx1112basic_stringIcSt11char_traitsIcESaIcEEESH_EUlvE_EEbS4_S7_S9_SH_SH_mRKT_
FNDA:0,_ZZN7httplib6detail27write_multipart_ranges_dataIZNS_6Server27write_content_with_providerERNS_6StreamERKNS_7RequestERNS_8ResponseERKNSt7__cxx1112basic_stringIcSt11char_traitsIcESaIcEEESH_EUlvE_EEbS4_S7_S9_SH_SH_mRKT_ENKUlSH_E_clESH_
FNDA:0,_ZZN7httplib6detail27write_multipart_ranges_dataIZNS_6Server27write_content_with_providerERNS_6StreamERKNS_7RequestERNS_8ResponseERKNSt7__cxx1112basic_stringIcSt11char_traitsIcESaIcEEESH_EUlvE_EEbS4_S7_S9_SH_SH_mRKT_ENKUlSH_E0_clESH_
FNDA:0,_ZZN7httplib6detail27write_multipart_ranges_dataIZNS_6Server27write_content_with_providerERNS_6StreamERKNS_7RequestERNS_8ResponseERKNSt7__cxx1112basic_stringIcSt11char_traitsIcESaIcEEESH_EUlvE_EEbS4_S7_S9_SH_SH_mRKT_ENKUlmmE_clEmm
FNDA:0,_ZN7httplib6detail14expect_contentERKNS_7RequestE
FNDA:0,_ZN7httplib6detail14message_digestERKNSt7__cxx1112basic_stringIcSt11char_traitsIcESaIcEEEPK9evp_md_st
FNDA:0,_ZN7httplib6detail3MD5ERKNSt7__cxx1112basic_stringIcSt11char_traitsIcESaIcEEE
FNDA:0,_ZN7httplib6detail7SHA_256ERKNSt7__cxx1112basic_stringIcSt11char_traitsIcESaIcEEE
FNDA:0,_ZN7httplib6detail7SHA_512ERKNSt7__cxx1112basic_stringIcSt11char_traitsIcESaIcEEE
FNDA:3,_ZN7httplib8DataSink19data_sink_streambufC2ERS0_
FNDA:0,_ZN7httplib8DataSink19data_sink_streambuf6xsputnEPKcl
FNDA:0,_ZN7httplib6detail33make_digest_authentication_headerERKNS_7RequestERKSt3mapINSt7__cxx1112basic_stringIcSt11char_traitsIcESaIcEEESA_St4lessISA_ESaISt4pairIKSA_SA_EEEmRSE_SK_SK_b
FNDA:0,_ZN7httplib6detail22parse_www_authenticateERKNS_8ResponseERSt3mapINSt7__cxx1112basic_stringIcSt11char_traitsIcESaIcEEESA_St4lessISA_ESaISt4pairIKSA_SA_EEEb
FNDA:0,_ZN7httplib6detail22ContentProviderAdapterC2EOSt8functionIFbmRNS_8DataSinkEEE
FNDA:0,_ZN7httplib6detail22ContentProviderAdapterclEmmRNS_8DataSinkE
FNDA:0,_ZN7httplib19append_query_paramsERKNSt7__cxx1112basic_stringIcSt11char_traitsIcESaIcEEERKSt8multimapIS5_S5_St4lessIS5_ESaISt4pairIS6_S5_EEE
FNDA:0,_ZN7httplib32make_basic_authentication_headerERKNSt7__cxx1112basic_stringIcSt11char_traitsIcESaIcEEES7_b
FNDA:0,_ZN7httplib39make_bearer_token_authentication_headerERKNSt7__cxx1112basic_stringIcSt11char_traitsIcESaIcEEEb
FNDA:15,_ZNK7httplib7Request10has_headerERKNSt7__cxx1112basic_stringIcSt11char_traitsIcESaIcEEE
FNDA:0,_ZNK7httplib7Request16get_header_valueERKNSt7__cxx1112basic_stringIcSt11char_traitsIcESaIcEEEPKcm
FNDA:15,_ZN7httplib7Request10set_headerERKNSt7__cxx1112basic_stringIcSt11char_traitsIcESaIcEEES8_
FNDA:0,_ZNK7httplib7Request22is_multipart_form_dataEv
FNDA:3,_ZNK7httplib8Response10has_headerERKNSt7__cxx1112basic_stringIcSt11char_traitsIcESaIcEEE
FNDA:6,_ZNK7httplib8Response16get_header_valueERKNSt7__cxx1112basic_stringIcSt11char_traitsIcESaIcEEEPKcm
FNDA:0,_ZN7httplib8Response10set_headerERKNSt7__cxx1112basic_stringIcSt11char_traitsIcESaIcEEES8_
FNDA:0,_ZN7httplib8Response12set_redirectERKNSt7__cxx1112basic_stringIcSt11char_traitsIcESaIcEEEi
FNDA:0,_ZN7httplib8Response20set_content_providerEmRKNSt7__cxx1112basic_stringIcSt11char_traitsIcESaIcEEESt8functionIFbmmRNS_8DataSinkEEES9_IFvbEE
FNDA:0,_ZN7httplib13ContentReaderC2ESt8functionIFbS1_IFbPKcmEEEES1_IFbS1_IFbRKNS_17MultipartFormDataEEES5_EE
FNDA:3,_ZN7httplib6Stream5writeEPKc
FNDA:0,_ZN7httplib6Stream5writeERKNSt7__cxx1112basic_stringIcSt11char_traitsIcESaIcEEE
FNDA:3,_ZN7httplib6detail12SocketStreamC2Eillll
FNDA:0,_ZN7httplib6detail12SocketStreamD0Ev
FNDA:3,_ZN7httplib6detail12SocketStreamD2Ev
FNDA:3,_ZNK7httplib6detail12SocketStream11is_readableEv
FNDA:3,_ZNK7httplib6detail12SocketStream11is_writableEv
FNDA:429,_ZN7httplib6detail12SocketStream4readEPcm
FNDA:3,_ZN7httplib6detail12SocketStream5writeEPKcm
FNDA:0,_ZNK7httplib6detail12SocketStream22get_remote_ip_and_portERNSt7__cxx1112basic_stringIcSt11char_traitsIcESaIcEEERi
FNDA:0,_ZNK7httplib6detail12SocketStream21get_local_ip_and_portERNSt7__cxx1112basic_stringIcSt11char_traitsIcESaIcEEERi
FNDA:0,_ZNK7httplib6detail12SocketStream6socketEv
FNDA:0,_ZNK7httplib6detail12BufferStream11is_readableEv
FNDA:0,_ZNK7httplib6detail12BufferStream11is_writableEv
FNDA:0,_ZN7httplib6detail12BufferStream4readEPcm
FNDA:21,_ZN7httplib6detail12BufferStream5writeEPKcm
FNDA:0,_ZNK7httplib6detail12BufferStream22get_remote_ip_and_portERNSt7__cxx1112basic_stringIcSt11char_traitsIcESaIcEEERi
FNDA:0,_ZNK7httplib6detail12BufferStream21get_local_ip_and_portERNSt7__cxx1112basic_stringIcSt11char_traitsIcESaIcEEERi
FNDA:0,_ZNK7httplib6detail12BufferStream6socketEv
FNDA:3,_ZNK7httplib6detail12BufferStream10get_bufferB5cxx11Ev
FNDA:0,_ZNK7httplib6detail17PathParamsMatcher5matchERNS_7RequestE
FNDA:0,_ZNK7httplib6detail12RegexMatcher5matchERNS_7RequestE
FNDA:0,_ZN7httplib6ServerD0Ev
FNDA:0,_ZN7httplib6ServerD2Ev
FNDA:0,_ZNK7httplib7Request20is_connection_closedMUlvE_clEv
FNDA:0,_ZNK7httplib6Server18parse_request_lineEPKcRNS_7RequestE
FNDA:0,_ZZNK7httplib6Server18parse_request_lineEPKcRNS_7RequestEENKUlS2_S2_E_clES2_S2_
FNDA:0,_ZZNK7httplib6Server18parse_request_lineEPKcRNS_7RequestEENKUlS2_mS2_mE_clES2_mS2_m
FNDA:0,_ZN7httplib6Server14write_responseERNS_6StreamEbRNS_7RequestERNS_8ResponseE
FNDA:0,_ZN7httplib6Server27write_response_with_contentERNS_6StreamEbRKNS_7RequestERNS_8ResponseE
FNDA:0,_ZN7httplib6Server19write_response_coreERNS_6StreamEbRKNS_7RequestERNS_8ResponseEb
FNDA:0,_ZN7httplib6Server27write_content_with_providerERNS_6StreamERKNS_7RequestERNS_8ResponseERKNSt7__cxx1112basic_stringIcSt11char_traitsIcESaIcEEESF_
FNDA:0,_ZZN7httplib6Server27write_content_with_providerERNS_6StreamERKNS_7RequestERNS_8ResponseERKNSt7__cxx1112basic_stringIcSt11char_traitsIcESaIcEEESF_ENKUlvE_clEv
FNDA:0,_ZN7httplib6Server12read_contentERNS_6StreamERNS_7RequestERNS_8ResponseE
FNDA:0,_ZZN7httplib6Server12read_contentERNS_6StreamERNS_7RequestERNS_8ResponseEENKUlPKcmE_clES8_m
FNDA:0,_ZZN7httplib6Server12read_contentERNS_6StreamERNS_7RequestERNS_8ResponseEENKUlRKNS_17MultipartFormDataEE_clES9_
FNDA:0,_ZZN7httplib6Server12read_contentERNS_6StreamERNS_7RequestERNS_8ResponseEENKUlPKcmE0_clES8_m
FNDA:0,_ZN7httplib6Server34read_content_with_content_receiverERNS_6StreamERNS_7RequestERNS_8ResponseESt8functionIFbPKcmEES7_IFbRKNS_17MultipartFormDataEEESB_
FNDA:0,_ZNK7httplib6Server17read_content_coreERNS_6StreamERNS_7RequestERNS_8ResponseESt8functionIFbPKcmEES7_IFbRKNS_17MultipartFormDataEEESB_
FNDA:0,_ZZNK7httplib6Server17read_content_coreERNS_6StreamERNS_7RequestERNS_8ResponseESt8functionIFbPKcmEES7_IFbRKNS_17MultipartFormDataEEESB_ENKUlS9_mmmE_clES9_mmm
FNDA:0,_ZZNK7httplib6Server17read_content_coreERNS_6StreamERNS_7RequestERNS_8ResponseESt8functionIFbPKcmEES7_IFbRKNS_17MultipartFormDataEEESB_ENKUlS9_mmmE0_clES9_mmm
FNDA:0,_ZN7httplib6Server19handle_file_requestERKNS_7RequestERNS_8ResponseEb
FNDA:0,_ZZN7httplib6Server19handle_file_requestERKNS_7RequestERNS_8ResponseEbENKUlmmRNS_8DataSinkEE_clEmmS7_
FNDA:0,_ZN7httplib6Server7routingERNS_7RequestERNS_8ResponseERNS_6StreamE
FNDA:0,_ZZN7httplib6Server7routingERNS_7RequestERNS_8ResponseERNS_6StreamEENKUlSt8functionIFbPKcmEEE_clESB_
FNDA:0,_ZZN7httplib6Server7routingERNS_7RequestERNS_8ResponseERNS_6StreamEENKUlSt8functionIFbRKNS_17MultipartFormDataEEES7_IFbPKcmEEE_clESC_SG_
FNDA:0,_ZNK7httplib6Server16dispatch_requestERNS_7RequestERNS_8ResponseERKSt6vectorISt4pairISt10unique_ptrINS_6detail11MatcherBaseESt14default_deleteIS9_EESt8functionIFvRKS1_S4_EEESaISI_EE
FNDA:0,_ZNK7httplib6Server12apply_rangesERKNS_7RequestERNS_8ResponseERNSt7__cxx1112basic_stringIcSt11char_traitsIcESaIcEEESC_
FNDA:3,_ZN7httplib8ResponseC2Ev
FNDA:0,_ZN7httplib8ResponseaSERKS0_
FNDA:0,_ZN7httplib8ResponseaSEOS0_
FNDA:0,_ZZNK7httplib6Server12apply_rangesERKNS_7RequestERNS_8ResponseERNSt7__cxx1112basic_stringIcSt11char_traitsIcESaIcEEESC_ENKUlPKcmE_clESE_m
FNDA:3,_ZN7httplib8ResponseD2Ev
FNDA:0,_ZNK7httplib6Server35dispatch_request_for_content_readerERNS_7RequestERNS_8ResponseENS_13ContentReaderERKSt6vectorISt4pairISt10unique_ptrINS_6detail11MatcherBaseESt14default_deleteISA_EESt8functionIFvRKS1_S4_RKS5_EEESaISL_EE
FNDA:0,_ZN7httplib6Server15process_requestERNS_6StreamERKNSt7__cxx1112basic_stringIcSt11char_traitsIcESaIcEEEiSA_ibRbRKSt8functionIFvRNS_7RequestEEE
FNDA:0,_ZZN7httplib6Server15process_requestERNS_6StreamERKNSt7__cxx1112basic_stringIcSt11char_traitsIcESaIcEEEiSA_ibRbRKSt8functionIFvRNS_7RequestEEEENKUlvE_clEv
FNDA:0,_ZN7httplib6StreamD0Ev
FNDA:6,_ZN7httplib6StreamD2Ev
FNDA:0,_ZZN7httplib6Server15process_requestERNS_6StreamERKNSt7__cxx1112basic_stringIcSt11char_traitsIcESaIcEEEiSA_ibRbRKSt8functionIFvRNS_7RequestEEEENKUlmmRNS_8DataSinkEE_clEmmSK_
FNDA:0,_ZNK7httplib6Server8is_validEv
FNDA:0,_ZN7httplib6Server24process_and_close_socketEi
FNDA:0,_ZZN7httplib6Server24process_and_close_socketEiENKUlRNS_6StreamEbRbE_clES2_bS3_
FNDA:0,_ZN7httplib10ClientImplC2ERKNSt7__cxx1112basic_stringIcSt11char_traitsIcESaIcEEEi
FNDA:3,_ZN7httplib10ClientImplC2ERKNSt7__cxx1112basic_stringIcSt11char_traitsIcESaIcEEEiS8_S8_
FNDA:3,_ZN7httplib10ClientImplD0Ev
FNDA:3,_ZN7httplib10ClientImplD2Ev
FNDA:0,_ZNK7httplib10ClientImpl8is_validEv
FNDA:0,_ZN7httplib10ClientImpl13copy_settingsERKS0_
FNDA:3,_ZNK7httplib10ClientImpl20create_client_socketERNS_5ErrorE
FNDA:3,_ZN7httplib10ClientImpl25create_and_connect_socketERNS0_6SocketERNS_5ErrorE
FNDA:6,_ZN7httplib10ClientImpl12shutdown_sslERNS0_6SocketEb
FNDA:9,_ZNK7httplib10ClientImpl15shutdown_socketERNS0_6SocketE
FNDA:9,_ZN7httplib10ClientImpl12close_socketERNS0_6SocketE
FNDA:3,_ZNK7httplib10ClientImpl18read_response_lineERNS_6StreamERKNS_7RequestERNS_8ResponseE
FNDA:3,_ZN7httplib10ClientImpl4sendERNS_7RequestERNS_8ResponseERNS_5ErrorE
FNDA:0,_ZNK7httplib10ClientImpl27is_ssl_peer_could_be_closedEP6ssl_st
FNDA:0,_ZZNK7httplib10ClientImpl27is_ssl_peer_could_be_closedEP6ssl_stENKUlvE_clEv
FNDA:3,_ZN7httplib10ClientImpl5send_ERNS_7RequestERNS_8ResponseERNS_5ErrorE
FNDA:3,_ZZN7httplib10ClientImpl5send_ERNS_7RequestERNS_8ResponseERNS_5ErrorEENKUlvE_clEv
FNDA:3,_ZZN7httplib10ClientImpl5send_ERNS_7RequestERNS_8ResponseERNS_5ErrorEENKUlRNS_6StreamEE_clES8_
FNDA:3,_ZN7httplib10ClientImpl5send_EONS_7RequestE
FNDA:3,_ZN7httplib10ClientImpl14handle_requestERNS_6StreamERNS_7RequestERNS_8ResponseEbRNS_5ErrorE
FNDA:0,_ZN7httplib10ClientImpl8redirectERNS_7RequestERNS_8ResponseERNS_5ErrorE
FNDA:3,_ZNK7httplib10ClientImpl27write_content_with_providerERNS_6StreamERKNS_7RequestERNS_5ErrorE
FNDA:0,_ZZNK7httplib10ClientImpl27write_content_with_providerERNS_6StreamERKNS_7RequestERNS_5ErrorEENKUlvE_clEv
FNDA:3,_ZN7httplib10ClientImpl13write_requestERNS_6StreamERNS_7RequestEbRNS_5ErrorE
FNDA:0,_ZN7httplib10ClientImpl26send_with_content_providerERNS_7RequestEPKcmSt8functionIFbmmRNS_8DataSinkEEES5_IFbmS7_EERKNSt7__cxx1112basic_stringIcSt11char_traitsIcESaIcEEERNS_5ErrorE
FNDA:0,_ZZN7httplib10ClientImpl26send_with_content_providerERNS_7RequestEPKcmSt8functionIFbmmRNS_8DataSinkEEES5_IFbmS7_EERKNSt7__cxx1112basic_stringIcSt11char_traitsIcESaIcEEERNS_5ErrorEENKUlS4_mE_clES4_m
FNDA:0,_ZZZN7httplib10ClientImpl26send_with_content_providerERNS_7RequestEPKcmSt8functionIFbmmRNS_8DataSinkEEES5_IFbmS7_EERKNSt7__cxx1112basic_stringIcSt11char_traitsIcESaIcEEERNS_5ErrorEENKUlS4_mE_clES4_mENKUlS4_mE_clES4_m
FNDA:0,_ZZN7httplib10ClientImpl26send_with_content_providerERNS_7RequestEPKcmSt8functionIFbmmRNS_8DataSinkEEES5_IFbmS7_EERKNSt7__cxx1112basic_stringIcSt11char_traitsIcESaIcEEERNS_5ErrorEENKUlS4_mE0_clES4_m
FNDA:0,_ZN7httplib10ClientImpl26send_with_content_providerERKNSt7__cxx1112basic_stringIcSt11char_traitsIcESaIcEEES8_RKSt18unordered_multimapIS6_S6_NS_6detail11case_ignore4hashENSB_8equal_toESaISt4pairIS7_S6_EEEPKcmSt8functionIFbmmRNS_8DataSinkEEESM_IFbmSO_EES8_SM_IFbmmEE
FNDA:3,_ZNK7httplib10ClientImpl18adjust_host_stringERKNSt7__cxx1112basic_stringIcSt11char_traitsIcESaIcEEE
FNDA:3,_ZN7httplib10ClientImpl15process_requestERNS_6StreamERNS_7RequestERNS_8ResponseEbRNS_5ErrorE
FNDA:0,_ZZN7httplib10ClientImpl15process_requestERNS_6StreamERNS_7RequestERNS_8ResponseEbRNS_5ErrorEENKUlPKcmmmE_clESA_mmm
FNDA:3,_ZZN7httplib10ClientImpl15process_requestERNS_6StreamERNS_7RequestERNS_8ResponseEbRNS_5ErrorEENKUlPKcmmmE0_clESA_mmm
FNDA:3,_ZZN7httplib10ClientImpl15process_requestERNS_6StreamERNS_7RequestERNS_8ResponseEbRNS_5ErrorEENKUlmmE_clEmm
FNDA:3,_ZN7httplib10ClientImpl14process_socketERKNS0_6SocketESt8functionIFbRNS_6StreamEEE
FNDA:12,_ZNK7httplib10ClientImpl6is_sslEv
FNDA:3,_ZN7httplib10ClientImpl3GetERKNSt7__cxx1112basic_stringIcSt11char_traitsIcESaIcEEE
FNDA:3,_ZN7httplib10ClientImpl3GetERKNSt7__cxx1112basic_stringIcSt11char_traitsIcESaIcEEERKSt18unordered_multimapIS6_S6_NS_6detail11case_ignore4hashENSB_8equal_toESaISt4pairIS7_S6_EEESt8functionIFbmmEE
FNDA:0,_ZN7httplib10ClientImpl4PostERKNSt7__cxx1112basic_stringIcSt11char_traitsIcESaIcEEES8_S8_
FNDA:0,_ZN7httplib10ClientImpl4PostERKNSt7__cxx1112basic_stringIcSt11char_traitsIcESaIcEEERKSt18unordered_multimapIS6_S6_NS_6detail11case_ignore4hashENSB_8equal_toESaISt4pairIS7_S6_EEES8_S8_
FNDA:0,_ZN7httplib6detail11MatcherBaseD0Ev
FNDA:0,_ZN7httplib6detail11MatcherBaseD2Ev
FNDA:3,_ZN7httplib10ClientImpl16set_read_timeoutEll
FNDA:0,_ZN7httplib6detail7ssl_newIZNS_9SSLClient14initialize_sslERNS_10ClientImpl6SocketERNS_5ErrorEEUlP6ssl_stE_ZNS2_14initialize_sslES5_S7_EUlS9_E0_EES9_iP10ssl_ctx_stRSt5mutexT_T0_
FNDA:0,_ZN7httplib6detail7ssl_newIZNS_9SSLServer24process_and_close_socketEiEUlP6ssl_stE_ZNS2_24process_and_close_socketEiEUlS4_E0_EES4_iP10ssl_ctx_stRSt5mutexT_T0_
FNDA:0,_ZN7httplib6detail10ssl_deleteERSt5mutexP6ssl_stib
FNDA:0,_ZN7httplib6detail33ssl_connect_or_accept_nonblockingIPFiP6ssl_stEEEbiS3_T_ll
FNDA:0,_ZN7httplib6detail25process_server_socket_sslIZNS_9SSLServer24process_and_close_socketEiEUlRNS_6StreamEbRbE_EEbRKSt6atomicIiEP6ssl_stimlllllT_
FNDA:0,_ZZN7httplib6detail25process_server_socket_sslIZNS_9SSLServer24process_and_close_socketEiEUlRNS_6StreamEbRbE_EEbRKSt6atomicIiEP6ssl_stimlllllT_ENKUlbS5_E_clEbS5_
FNDA:0,_ZN7httplib6detail25process_client_socket_sslISt8functionIFbRNS_6StreamEEEEEbP6ssl_stillllT_
FNDA:6,_ZN7httplib6detail7SSLInitC2Ev
FNDA:0,_ZN7httplib6detail15SSLSocketStreamC2EiP6ssl_stllll
FNDA:0,_ZN7httplib6detail15SSLSocketStreamD0Ev
FNDA:0,_ZN7httplib6detail15SSLSocketStreamD2Ev
FNDA:0,_ZNK7httplib6detail15SSLSocketStream11is_readableEv
FNDA:0,_ZNK7httplib6detail15SSLSocketStream11is_writableEv
FNDA:0,_ZN7httplib6detail15SSLSocketStream4readEPcm
FNDA:0,_ZN7httplib6detail15SSLSocketStream5writeEPKcm
FNDA:0,_ZNK7httplib6detail15SSLSocketStream22get_remote_ip_and_portERNSt7__cxx1112basic_stringIcSt11char_traitsIcESaIcEEERi
FNDA:0,_ZNK7httplib6detail15SSLSocketStream21get_local_ip_and_portERNSt7__cxx1112basic_stringIcSt11char_traitsIcESaIcEEERi
FNDA:0,_ZNK7httplib6detail15SSLSocketStream6socketEv
FNDA:0,_ZN7httplib9SSLServerD0Ev
FNDA:0,_ZN7httplib9SSLServerD2Ev
FNDA:0,_ZNK7httplib9SSLServer8is_validEv
FNDA:0,_ZN7httplib9SSLServer24process_and_close_socketEi
FNDA:0,_ZZN7httplib9SSLServer24process_and_close_socketEiENKUlP6ssl_stE_clES2_
FNDA:0,_ZZN7httplib9SSLServer24process_and_close_socketEiENKUlP6ssl_stE0_clES2_
FNDA:0,_ZZN7httplib9SSLServer24process_and_close_socketEiENKUlRNS_6StreamEbRbE_clES2_bS3_
FNDA:0,_ZZZN7httplib9SSLServer24process_and_close_socketEiENKUlRNS_6StreamEbRbE_clES2_bS3_ENKUlRNS_7RequestEE_clES6_
FNDA:0,_ZN7httplib9SSLClientC2ERKNSt7__cxx1112basic_stringIcSt11char_traitsIcESaIcEEEi
FNDA:0,_ZN7httplib9SSLClientC2ERKNSt7__cxx1112basic_stringIcSt11char_traitsIcESaIcEEEiS8_S8_S8_
FNDA:0,_ZZN7httplib9SSLClientC4ERKNSt7__cxx1112basic_stringIcSt11char_traitsIcESaIcEEEiS8_S8_S8_ENKUlPKcSA_E_clESA_SA_
FNDA:0,_ZN7httplib9SSLClientD0Ev
FNDA:0,_ZN7httplib9SSLClientD2Ev
FNDA:0,_ZNK7httplib9SSLClient8is_validEv
FNDA:0,_ZN7httplib9SSLClient17set_ca_cert_storeEP13x509_store_st
FNDA:0,_ZN7httplib9SSLClient25create_and_connect_socketERNS_10ClientImpl6SocketERNS_5ErrorE
FNDA:0,_ZN7httplib9SSLClient18connect_with_proxyERNS_10ClientImpl6SocketERNS_8ResponseERbRNS_5ErrorE
FNDA:0,_ZZN7httplib9SSLClient18connect_with_proxyERNS_10ClientImpl6SocketERNS_8ResponseERbRNS_5ErrorEENKUlRNS_6StreamEE_clESA_
FNDA:0,_ZZN7httplib9SSLClient18connect_with_proxyERNS_10ClientImpl6SocketERNS_8ResponseERbRNS_5ErrorEENKUlRNS_6StreamEE0_clESA_
FNDA:0,_ZN7httplib9SSLClient10load_certsEv
FNDA:0,_ZZN7httplib9SSLClient10load_certsEvENKUlvE_clEv
FNDA:0,_ZN7httplib9SSLClient14initialize_sslERNS_10ClientImpl6SocketERNS_5ErrorE
FNDA:0,_ZZN7httplib9SSLClient14initialize_sslERNS_10ClientImpl6SocketERNS_5ErrorEENKUlP6ssl_stE_clES7_
FNDA:0,_ZZZN7httplib9SSLClient14initialize_sslERNS_10ClientImpl6SocketERNS_5ErrorEENKUlP6ssl_stE_clES7_ENKUlvE_clEv
FNDA:0,_ZZN7httplib9SSLClient14initialize_sslERNS_10ClientImpl6SocketERNS_5ErrorEENKUlP6ssl_stE0_clES7_
FNDA:0,_ZN7httplib9SSLClient12shutdown_sslERNS_10ClientImpl6SocketEb
FNDA:0,_ZN7httplib9SSLClient17shutdown_ssl_implERNS_10ClientImpl6SocketEb
FNDA:0,_ZN7httplib9SSLClient14process_socketERKNS_10ClientImpl6SocketESt8functionIFbRNS_6StreamEEE
FNDA:0,_ZNK7httplib9SSLClient6is_sslEv
FNDA:0,_ZNK7httplib9SSLClient11verify_hostEP7x509_st
FNDA:0,_ZNK7httplib9SSLClient33verify_host_with_subject_alt_nameEP7x509_st
FNDA:0,_ZNK7httplib9SSLClient28verify_host_with_common_nameEP7x509_st
FNDA:0,_ZNK7httplib9SSLClient15check_host_nameEPKcm
FNDA:0,_ZZNK7httplib9SSLClient15check_host_nameEPKcmENKUlS2_S2_E_clES2_S2_
FNDA:3,_ZN7httplib6ClientC2ERKNSt7__cxx1112basic_stringIcSt11char_traitsIcESaIcEEE
FNDA:3,_ZN7httplib6ClientC2ERKNSt7__cxx1112basic_stringIcSt11char_traitsIcESaIcEEES8_S8_
FNDA:3,_ZN7httplib6ClientD2Ev
FNDA:3,_ZN7httplib6Client3GetERKNSt7__cxx1112basic_stringIcSt11char_traitsIcESaIcEEE
FNDA:0,_ZN7httplib6Client4PostERKNSt7__cxx1112basic_stringIcSt11char_traitsIcESaIcEEES8_S8_
FNF:428
FNH:127
DA:335,6
DA:336,6
DA:348,1053
DA:369,1053
DA:372,42
DA:373,57
DA:374,15
DA:375,198
DA:376,42
DA:380,15
DA:381,15
DA:386,60
DA:387,60
DA:390,717
DA:391,717
DA:392,657
DA:395,657
DA:396,657
DA:397,1374
DA:407,6
DA:408,6
DA:416,6
DA:417,6
DA:418,6
DA:531,3
DA:547,3
DA:550,0
DA:551,0
DA:552,0
DA:594,0
DA:595,0
DA:596,0
DA:633,0
DA:706,3
DA:708,0
DA:710,0
DA:711,3
DA:712,3
DA:713,0
DA:715,3
DA:729,6
DA:853,0
DA:1163,3
DA:1165,3
DA:1166,3
DA:1168,3
DA:1176,3
DA:1475,3
DA:2018,6
DA:2019,6
DA:2022,6
DA:2025,6
DA:2026,6
DA:2027,6
DA:2028,6
DA:2029,6
DA:2030,6
DA:2031,6
DA:2033,0
DA:2036,0
DA:2039,3
DA:2042,3
DA:2043,6
DA:2048,0
DA:2050,0
DA:2053,3
DA:2055,3
DA:2074,0
DA:2075,0
DA:2076,0
DA:2077,0
DA:2078,0
DA:2079,0
DA:2080,0
DA:2081,0
DA:2082,0
DA:2083,0
DA:2084,0
DA:2085,0
DA:2086,0
DA:2087,0
DA:2088,0
DA:2089,0
DA:2090,0
DA:2091,0
DA:2092,0
DA:2093,0
DA:2094,0
DA:2095,0
DA:2096,0
DA:2097,0
DA:2098,0
DA:2099,0
DA:2100,0
DA:2101,0
DA:2102,0
DA:2103,0
DA:2104,0
DA:2105,0
DA:2106,0
DA:2107,0
DA:2108,0
DA:2109,0
DA:2110,0
DA:2111,0
DA:2112,0
DA:2113,0
DA:2114,0
DA:2115,0
DA:2116,0
DA:2117,0
DA:2118,0
DA:2119,0
DA:2120,0
DA:2121,0
DA:2122,0
DA:2123,0
DA:2124,0
DA:2125,0
DA:2126,0
DA:2127,0
DA:2128,0
DA:2129,0
DA:2130,0
DA:2131,0
DA:2132,0
DA:2133,0
DA:2134,0
DA:2135,0
DA:2136,0
DA:2137,0
DA:2138,0
DA:2139,0
DA:2140,0
DA:2141,0
DA:2142,0
DA:2143,0
DA:2145,0
DA:2146,0
DA:2376,3
DA:2377,3
DA:2396,0
DA:2405,0
DA:2416,0
DA:2529,135
DA:2530,6
DA:2531,6
DA:2532,141
DA:2535,15
DA:2536,15
DA:2537,150
DA:2538,135
DA:2540,15
DA:2543,15
DA:2545,342
DA:2547,0
DA:2549,342
DA:2551,27
DA:2552,27
DA:2554,27
DA:2555,0
DA:2556,27
DA:2557,3
DA:2559,24
DA:2561,24
DA:2562,24
DA:2564,333
DA:2565,309
DA:2566,309
DA:2568,0
DA:2572,24
DA:2576,27
DA:2590,0
DA:2591,0
DA:2592,0
DA:2593,0
DA:2594,0
DA:2595,0
DA:2596,0
DA:2597,0
DA:2598,0
DA:2599,0
DA:2601,0
DA:2604,0
DA:2606,0
DA:2608,0
DA:2609,0
DA:2610,0
DA:2611,0
DA:2612,0
DA:2613,0
DA:2615,0
DA:2618,0
DA:2621,0
DA:2623,0
DA:2625,0
DA:2626,0
DA:2627,0
DA:2628,0
DA:2629,0
DA:2631,0
DA:2632,0
DA:2633,0
DA:2634,0
DA:2635,0
DA:2636,0
DA:2637,0
DA:2638,0
DA:2639,0
DA:2640,0
DA:2641,0
DA:2642,0
DA:2643,0
DA:2644,0
DA:2645,0
DA:2646,0
DA:2647,0
DA:2648,0
DA:2649,0
DA:2650,0
DA:2651,0
DA:2652,0
DA:2653,0
DA:2654,0
DA:2655,0
DA:2656,0
DA:2660,0
DA:2665,0
DA:2669,0
DA:2670,0
DA:2672,0
DA:2673,0
DA:2675,0
DA:2676,0
DA:2677,0
DA:2678,0
DA:2679,0
DA:2680,0
DA:2684,0
DA:2686,0
DA:2687,0
DA:2690,0
DA:2691,0
DA:2693,0
DA:2694,0
DA:2695,0
DA:2698,0
DA:2699,0
DA:2702,0
DA:2704,0
DA:2705,0
DA:2706,0
DA:2707,0
DA:2708,0
DA:2709,0
DA:2711,0
DA:2714,0
DA:2715,0
DA:2717,0
DA:2719,0
DA:2720,0
DA:2721,0
DA:2723,0
DA:2727,0
DA:2728,0
DA:2732,0
DA:2735,0
DA:2740,0
DA:2742,0
DA:2743,0
DA:2744,0
DA:2746,0
DA:2747,0
DA:2750,0
DA:2751,0
DA:2752,0
DA:2753,0
DA:2755,0
DA:2756,0
DA:2757,0
DA:2759,0
DA:2761,0
DA:2762,0
DA:2763,0
DA:2764,0
DA:2768,0
DA:2769,0
DA:2771,3
DA:2772,3
DA:2773,3
DA:2775,30
DA:2776,27
DA:2777,0
DA:2778,0
DA:2779,0
DA:2780,0
DA:2781,0
DA:2782,0
DA:2784,0
DA:2785,27
DA:2786,27
DA:2787,27
DA:2788,0
DA:2790,0
DA:2791,0
DA:2792,0
DA:2794,27
DA:2796,27
DA:2800,3
DA:2801,0
DA:2803,12
DA:2805,12
DA:2807,213
DA:2808,201
DA:2809,0
DA:2810,0
DA:2811,0
DA:2814,0
DA:2815,0
DA:2816,0
DA:2818,0
DA:2821,0
DA:2822,0
DA:2824,0
DA:2825,0
DA:2827,0
DA:2830,201
DA:2831,0
DA:2833,201
DA:2837,12
DA:2838,0
DA:2849,0
DA:2850,0
DA:2851,0
DA:2852,0
DA:2853,0
DA:2854,0
DA:2856,36
DA:2858,0
DA:2860,0
DA:2861,0
DA:2863,0
DA:2864,0
DA:2866,0
DA:2869,0
DA:2870,0
DA:2871,0
DA:2874,0
DA:2875,0
DA:2876,0
DA:2878,0
DA:2882,0
DA:2885,0
DA:2886,0
DA:2887,0
DA:2888,0
DA:2889,0
DA:2890,0
DA:2892,0
DA:2893,0
DA:2896,0
DA:2899,0
DA:2900,0
DA:2902,0
DA:2904,0
DA:2907,0
DA:2909,0
DA:2910,0
DA:2911,0
DA:2913,0
DA:2914,0
DA:2915,0
DA:2916,0
DA:2917,0
DA:2918,0
DA:2920,0
DA:2923,0
DA:2924,0
DA:2925,0
DA:2927,0
DA:2929,6
DA:2930,6
DA:2931,6
DA:2932,6
DA:2934,42
DA:2935,42
DA:2936,42
DA:2938,0
DA:2942,69
DA:2943,69
DA:2944,69
DA:2946,0
DA:2950,15
DA:2951,15
DA:2952,15
DA:2955,18
DA:2956,18
DA:2957,18
DA:2960,18
DA:2963,18
DA:2965,426
DA:2967,426
DA:2968,0
DA:2969,426
DA:2970,0
DA:2971,0
DA:2973,0
DA:2977,426
DA:2982,426
DA:2983,408
DA:2985,408
DA:2987,18
DA:2990,426
DA:2991,426
DA:2992,426
DA:2993,426
DA:2995,0
DA:2996,0
DA:2997,0
DA:2999,0
DA:3001,426
DA:3003,0
DA:3005,0
DA:3007,0
DA:3008,0
DA:3066,0
DA:3067,0
DA:3070,0
DA:3071,0
DA:3072,0
DA:3074,0
DA:3076,0
DA:3079,0
DA:3080,0
DA:3081,0
DA:3082,0
DA:3086,0
DA:3089,0
DA:3090,0
DA:3093,0
DA:3095,0
DA:3096,0
DA:3099,0
DA:3118,0
DA:3119,0
DA:3120,0
DA:3123,0
DA:3124,0
DA:3125,0
DA:3128,0
DA:3129,0
DA:3130,3
DA:3134,3
DA:3138,18
DA:3139,18
DA:3141,18
DA:3142,18
DA:3143,0
DA:3144,0
DA:3146,18
DA:3148,18
DA:3151,3
DA:3152,3
DA:3153,3
DA:3159,3
DA:3160,3
DA:3163,3
DA:3165,3
DA:3166,3
DA:3172,3
DA:3173,3
DA:3176,6
DA:3187,6
DA:3191,102
DA:3192,6
DA:3195,6
DA:3196,6
DA:3198,6
DA:3199,6
DA:3200,6
DA:3204,3
DA:3215,3
DA:3219,51
DA:3220,3
DA:3223,3
DA:3224,3
DA:3226,3
DA:3227,3
DA:3228,3
DA:3232,3
DA:3257,3
DA:3261,51
DA:3262,3
DA:3264,3
DA:3265,3
DA:3268,3
DA:3269,3
DA:3271,3
DA:3272,3
DA:3275,3
DA:3277,3
DA:3278,3
DA:3279,3
DA:3280,3
DA:3282,3
DA:3283,3
DA:3285,0
DA:3289,3
DA:3290,3
DA:3291,3
DA:3292,3
DA:3293,0
DA:3294,0
DA:3297,0
DA:3354,0
DA:3358,0
DA:3362,0
DA:3364,0
DA:3365,0
DA:3368,0
DA:3369,0
DA:3372,0
DA:3373,0
DA:3374,0
DA:3375,0
DA:3376,0
DA:3377,0
DA:3380,0
DA:3382,0
DA:3384,0
DA:3389,0
DA:3392,0
DA:3393,0
DA:3394,0
DA:3395,0
DA:3396,0
DA:3397,0
DA:3398,0
DA:3399,0
DA:3400,0
DA:3402,0
DA:3407,0
DA:3412,0
DA:3414,0
DA:3415,0
DA:3417,0
DA:3418,0
DA:3421,3
DA:3427,3
DA:3428,6
DA:3429,3
DA:3431,3
DA:3435,3
DA:3439,3
DA:3440,3
DA:3441,0
DA:3442,0
DA:3443,0
DA:3444,0
DA:3445,3
DA:3449,0
DA:3450,0
DA:3451,0
DA:3452,0
DA:3453,0
DA:3454,0
DA:3455,0
DA:3459,3
DA:3464,3
DA:3468,3
DA:3469,3
DA:3470,3
DA:3472,3
DA:3473,0
DA:3475,0
DA:3476,0
DA:3478,3
DA:3479,3
DA:3480,3
DA:3484,3
DA:3485,0
DA:3486,0
DA:3489,0
DA:3495,0
DA:3496,0
DA:3497,0
DA:3499,0
DA:3500,0
DA:3502,0
DA:3503,0
DA:3504,0
DA:3510,0
DA:3513,0
DA:3514,0
DA:3515,0
DA:3517,0
DA:3518,0
DA:3522,3
DA:3524,3
DA:3526,0
DA:3528,0
DA:3530,6
DA:3532,3
DA:3559,3
DA:3565,3
DA:3574,3
DA:3575,0
DA:3580,0
DA:3585,3
DA:3586,0
DA:3591,0
DA:3596,3
DA:3599,3
DA:3600,3
DA:3602,0
DA:3604,0
DA:3607,0
DA:3608,3
DA:3610,6
DA:3615,6
DA:3616,6
DA:3619,6
DA:3621,3
DA:3625,3
DA:3629,0
DA:3633,0
DA:3634,0
DA:3635,0
DA:3636,0
DA:3638,0
DA:3639,0
DA:3641,0
DA:3642,0
DA:3643,0
DA:3644,0
DA:3645,0
DA:3646,0
DA:3650,0
DA:3651,0
DA:3658,0
DA:3660,0
DA:3661,0
DA:3663,0
DA:3664,0
DA:3665,0
DA:3666,0
DA:3667,0
DA:3668,0
DA:3669,0
DA:3671,0
DA:3672,0
DA:3674,0
DA:3675,0
DA:3676,0
DA:3677,0
DA:3678,0
DA:3680,0
DA:3681,0
DA:3682,0
DA:3684,0
DA:3691,0
DA:3692,0
DA:3695,3
DA:3702,3
DA:3704,3
DA:3705,3
DA:3706,3
DA:3708,0
DA:3709,0
DA:3710,0
DA:3711,0
DA:3712,0
DA:3715,0
DA:3717,3
DA:3720,3
DA:3722,3
DA:3723,3
DA:3724,0
DA:3725,0
DA:3727,3
DA:3729,3
DA:3730,0
DA:3731,0
DA:3735,3
DA:3745,3
DA:3746,3
DA:3747,3
DA:3760,3
DA:3761,3
DA:3762,3
DA:3767,3
DA:3768,3
DA:3771,3
DA:3772,3
DA:3774,0
DA:3777,3
DA:3780,0
DA:3782,0
DA:3783,0
DA:3784,0
DA:3785,0
DA:3786,0
DA:3788,0
DA:3791,0
DA:3792,0
DA:3793,0
DA:3795,0
DA:3798,0
DA:3799,0
DA:3802,0
DA:3804,0
DA:3805,0
DA:3807,0
DA:3809,0
DA:3811,0
DA:3813,0
DA:3815,0
DA:3818,0
DA:3821,0
DA:3822,0
DA:3823,0
DA:3832,0
DA:3835,0
DA:3839,0
DA:3842,0
DA:3843,0
DA:3846,0
DA:3847,0
DA:3848,0
DA:3851,0
DA:3852,0
DA:3864,0
DA:3867,0
DA:3869,0
DA:3870,0
DA:3874,0
DA:3875,0
DA:3877,0
DA:3878,0
DA:3879,0
DA:3880,0
DA:3881,0
DA:3882,0
DA:3883,0
DA:3884,0
DA:3886,0
DA:3887,0
DA:3888,0
DA:3889,0
DA:3890,0
DA:3891,0
DA:3892,0
DA:3893,0
DA:3894,0
DA:3895,0
DA:3896,0
DA:3897,0
DA:3899,0
DA:3900,0
DA:3901,0
DA:3903,0
DA:3904,0
DA:3905,0
DA:3906,0
DA:3908,0
DA:3909,0
DA:3910,0
DA:3911,0
DA:3913,0
DA:3914,0
DA:3915,0
DA:3916,0
DA:3917,0
DA:3918,0
DA:3919,0
DA:3920,0
DA:3921,0
DA:3922,0
DA:3923,0
DA:3924,0
DA:3925,0
DA:3927,0
DA:3929,0
DA:3932,0
DA:3934,0
DA:3935,0
DA:3940,0
DA:3942,0
DA:3944,0
DA:3948,0
DA:3950,0
DA:3951,0
DA:3953,0
DA:3964,0
DA:3965,0
DA:3968,0
DA:3969,0
DA:3971,0
DA:3973,0
DA:3974,0
DA:3978,0
DA:3979,0
DA:3980,0
DA:3981,0
DA:3982,0
DA:3984,0
DA:3985,0
DA:3986,0
DA:3988,0
DA:3990,0
DA:3992,0
DA:3995,0
DA:3998,0
DA:3999,0
DA:4000,0
DA:4002,0
DA:4003,0
DA:4005,0
DA:4006,0
DA:4008,0
DA:4010,0
DA:4011,0
DA:4013,0
DA:4014,0
DA:4016,0
DA:4017,0
DA:4019,0
DA:4021,0
DA:4023,0
DA:4024,0
DA:4026,0
DA:4029,0
DA:4030,0
DA:4031,0
DA:4032,0
DA:4033,0
DA:4039,0
DA:4040,0
DA:4042,0
DA:4044,0
DA:4046,0
DA:4048,0
DA:4050,0
DA:4053,0
DA:4056,0
DA:4057,0
DA:4058,0
DA:4060,0
DA:4061,0
DA:4063,0
DA:4064,0
DA:4065,0
DA:4066,0
DA:4068,0
DA:4070,0
DA:4071,0
DA:4072,0
DA:4074,0
DA:4077,0
DA:4078,0
DA:4082,0
DA:4084,0
DA:4086,0
DA:4176,18
DA:4177,18
DA:4180,9
DA:4183,9
DA:4184,9
DA:4185,9
DA:4186,9
DA:4187,6
DA:4191,12
DA:4193,12
DA:4194,0
DA:4197,12
DA:4198,132
DA:4199,120
DA:4202,12
DA:4204,12
DA:4206,12
DA:4208,24
DA:4209,12
DA:4212,12
DA:4213,12
DA:4214,12
DA:4216,24
DA:4221,12
DA:4223,12
DA:4225,60
DA:4226,36
DA:4227,0
DA:4229,12
DA:4232,12
DA:4233,12
DA:4235,0
DA:4238,3
DA:4239,3
DA:4241,3
DA:4244,15
DA:4247,15
DA:4248,15
DA:4250,15
DA:4257,0
DA:4261,12
DA:4264,12
DA:4266,12
DA:4267,12
DA:4268,12
DA:4269,12
DA:4270,0
DA:4272,12
DA:4274,3
DA:4275,3
DA:4277,3
DA:4282,3
DA:4283,6
DA:4284,3
DA:4285,3
DA:4286,3
DA:4288,3
DA:4289,3
DA:4291,3
DA:4292,3
DA:4296,3
DA:4299,0
DA:4301,0
DA:4302,0
DA:4303,0
DA:4304,0
DA:4305,0
DA:4306,0
DA:4310,0
DA:4313,0
DA:4315,0
DA:4316,0
DA:4318,0
DA:4319,0
DA:4320,0
DA:4326,0
DA:4328,0
DA:4331,0
DA:4333,0
DA:4336,0
DA:4339,0
DA:4341,0
DA:4342,0
DA:4344,0
DA:4346,0
DA:4347,0
DA:4350,0
DA:4352,0
DA:4354,0
DA:4357,0
DA:4371,0
DA:4373,0
DA:4374,0
DA:4377,0
DA:4378,0
DA:4380,0
DA:4381,0
DA:4382,0
DA:4385,0
DA:4388,0
DA:4389,0
DA:4391,3
DA:4392,15
DA:4393,6
DA:4397,3
DA:4400,3
DA:4401,3
DA:4402,3
DA:4404,3
DA:4406,0
DA:4411,3
DA:4415,0
DA:4416,0
DA:4420,3
DA:4421,0
DA:4422,0
DA:4424,0
DA:4425,0
DA:4426,0
DA:4427,0
DA:4429,0
DA:4430,0
DA:4431,0
DA:4432,0
DA:4435,3
DA:4437,6
DA:4439,3
DA:4441,3
DA:4442,3
DA:4445,3
DA:4448,6
DA:4449,3
DA:4450,3
DA:4451,3
DA:4452,3
DA:4454,3
DA:4455,0
DA:4456,6
DA:4457,0
DA:4459,3
DA:4460,9
DA:4461,3
DA:4464,3
DA:4465,0
DA:4466,3
DA:4467,0
DA:4468,0
DA:4469,0
DA:4470,3
DA:4471,3
DA:4475,3
DA:4476,0
DA:4479,3
DA:4480,6
DA:4483,3
DA:4485,3
DA:4486,3
DA:4487,3
DA:4488,3
DA:4489,6
DA:4490,3
DA:4492,0
DA:4493,0
DA:4494,0
DA:4495,0
DA:4496,0
DA:4497,0
DA:4498,0
DA:4499,0
DA:4501,3
DA:4502,3
DA:4503,18
DA:4504,15
DA:4505,15
DA:4506,15
DA:4507,15
DA:4508,15
DA:4510,15
DA:4511,15
DA:4512,15
DA:4513,15
DA:4514,3
DA:4515,3
DA:4516,3
DA:4517,3
DA:4520,3
DA:4521,3
DA:4522,6
DA:4523,3
DA:4524,3
DA:4525,3
DA:4527,3
DA:4531,3
DA:4534,3
DA:4535,3
DA:4536,3
DA:4538,3
DA:4539,0
DA:4540,0
DA:4541,0
DA:4543,0
DA:4546,0
DA:4549,3
DA:4551,3
DA:4552,0
DA:4553,0
DA:4554,0
DA:4555,0
DA:4556,0
DA:4557,0
DA:4558,0
DA:4559,0
DA:4560,0
DA:4564,3
DA:4565,3
DA:4566,3
DA:4569,0
DA:4572,0
DA:4573,0
DA:4574,0
DA:4579,0
DA:4582,0
DA:4583,0
DA:4584,0
DA:4585,0
DA:4587,0
DA:4588,0
DA:4589,0
DA:4590,0
DA:4592,0
DA:4595,0
DA:4597,0
DA:4599,0
DA:4600,0
DA:4601,0
DA:4602,0
DA:4603,0
DA:4604,0
DA:4605,0
DA:4608,0
DA:4609,0
DA:4613,0
DA:4615,0
DA:4616,0
DA:4617,0
DA:4618,0
DA:4620,0
DA:4621,0
DA:4622,0
DA:4623,0
DA:4625,0
DA:4626,0
DA:4627,0
DA:4628,0
DA:4629,0
DA:4631,0
DA:4633,0
DA:4635,0
DA:4636,0
DA:4637,0
DA:4639,0
DA:4641,0
DA:4643,0
DA:4644,0
DA:4647,0
DA:4649,0
DA:4650,0
DA:4652,0
DA:4654,0
DA:4655,0
DA:4656,0
DA:4657,0
DA:4658,0
DA:4660,0
DA:4661,0
DA:4664,0
DA:4666,0
DA:4667,0
DA:4668,0
DA:4669,0
DA:4670,0
DA:4672,0
DA:4674,0
DA:4675,0
DA:4676,0
DA:4680,0
DA:4681,0
DA:4682,0
DA:4683,0
DA:4684,0
DA:4689,0
DA:4690,0
DA:4691,0
DA:4693,0
DA:4695,0
DA:4696,0
DA:4699,0
DA:4700,0
DA:4701,0
DA:4702,0
DA:4703,0
DA:4704,0
DA:4705,0
DA:4706,0
DA:4707,0
DA:4708,0
DA:4712,0
DA:4713,0
DA:4714,0
DA:4717,0
DA:4720,0
DA:4721,0
DA:4722,0
DA:4726,0
DA:4729,0
DA:4730,0
DA:4731,0
DA:4733,0
DA:4734,0
DA:4735,0
DA:4736,0
DA:4737,0
DA:4740,0
DA:4742,0
DA:4743,0
DA:4744,0
DA:4745,0
DA:4747,0
DA:4749,0
DA:4750,0
DA:4752,0
DA:4753,0
DA:4755,0
DA:4756,0
DA:4757,0
DA:4758,0
DA:4759,0
DA:4761,0
DA:4762,0
DA:4764,0
DA:4766,0
DA:4767,0
DA:4768,0
DA:4769,0
DA:4770,0
DA:4772,0
DA:4773,0
DA:4774,0
DA:4775,0
DA:4777,0
DA:4778,0
DA:4779,0
DA:4781,0
DA:4782,0
DA:4784,0
DA:4785,0
DA:4787,0
DA:4788,0
DA:4789,0
DA:4791,0
DA:4793,0
DA:4794,0
DA:4795,0
DA:4796,0
DA:4797,0
DA:4798,0
DA:4799,0
DA:4802,0
DA:4803,0
DA:4804,0
DA:4805,0
DA:4806,0
DA:4807,0
DA:4809,0
DA:4810,0
DA:4811,0
DA:4812,0
DA:4813,0
DA:4815,0
DA:4817,0
DA:4819,0
DA:4820,0
DA:4821,0
DA:4823,0
DA:4824,0
DA:4829,0
DA:4831,0
DA:4832,0
DA:4833,0
DA:4836,0
DA:4837,0
DA:4838,0
DA:4839,0
DA:4840,0
DA:4841,0
DA:4843,0
DA:4844,0
DA:4845,0
DA:4846,0
DA:4849,0
DA:4850,0
DA:4851,0
DA:4852,0
DA:4853,0
DA:4857,0
DA:4859,0
DA:4860,0
DA:4861,0
DA:4862,0
DA:4863,0
DA:4866,0
DA:4867,0
DA:4868,0
DA:4870,0
DA:4874,0
DA:4879,0
DA:4881,0
DA:4882,0
DA:4883,0
DA:4884,0
DA:4885,0
DA:4887,0
DA:4889,0
DA:4892,0
DA:4894,0
DA:4895,0
DA:4896,0
DA:4897,0
DA:4898,0
DA:4899,0
DA:4900,0
DA:4901,0
DA:4902,0
DA:4904,0
DA:4905,0
DA:4906,0
DA:4907,0
DA:4909,0
DA:4910,0
DA:4911,0
DA:4912,0
DA:4914,0
DA:4915,0
DA:4916,0
DA:4917,0
DA:4919,0
DA:4920,0
DA:4921,0
DA:4924,0
DA:4926,0
DA:4927,0
DA:4928,0
DA:4929,0
DA:4932,0
DA:4934,0
DA:4936,0
DA:4940,0
DA:4942,0
DA:4943,0
DA:4944,0
DA:4945,0
DA:4947,0
DA:4948,0
DA:4949,0
DA:4951,0
DA:4952,0
DA:4955,0
DA:4956,0
DA:4958,0
DA:4959,0
DA:4962,0
DA:4964,0
DA:4965,0
DA:4966,0
DA:4968,0
DA:4969,0
DA:4971,0
DA:4972,0
DA:4973,0
DA:4974,0
DA:4975,0
DA:4976,0
DA:4977,0
DA:4978,0
DA:4980,0
DA:4981,0
DA:4982,0
DA:4983,0
DA:4984,0
DA:4985,0
DA:4986,0
DA:4988,0
DA:4989,0
DA:4991,0
DA:4992,0
DA:4993,0
DA:4994,0
DA:4995,0
DA:4997,0
DA:4999,0
DA:5001,0
DA:5003,0
DA:5004,0
DA:5005,0
DA:5006,0
DA:5007,0
DA:5009,0
DA:5010,0
DA:5011,0
DA:5012,0
DA:5013,0
DA:5015,0
DA:5018,0
DA:5023,0
DA:5027,0
DA:5028,0
DA:5029,0
DA:5030,0
DA:5031,0
DA:5033,0
DA:5035,0
DA:5036,0
DA:5037,0
DA:5038,0
DA:5041,0
DA:5055,0
DA:5057,0
DA:5058,0
DA:5059,0
DA:5061,0
DA:5064,0
DA:5066,0
DA:5068,0
DA:5070,0
DA:5071,0
DA:5074,0
DA:5075,0
DA:5077,0
DA:5078,0
DA:5079,0
DA:5081,0
DA:5082,0
DA:5083,0
DA:5086,0
DA:5087,0
DA:5089,0
DA:5091,0
DA:5094,0
DA:5097,0
DA:5098,0
DA:5099,0
DA:5100,0
DA:5101,0
DA:5104,0
DA:5105,0
DA:5107,0
DA:5109,0
DA:5110,0
DA:5112,0
DA:5113,0
DA:5115,0
DA:5122,0
DA:5129,0
DA:5132,0
DA:5133,0
DA:5135,0
DA:5137,0
DA:5138,0
DA:5139,0
DA:5141,0
DA:5142,0
DA:5144,0
DA:5145,0
DA:5205,0
DA:5206,0
DA:5207,0
DA:5208,0
DA:5210,0
DA:5211,0
DA:5212,0
DA:5219,0
DA:5221,0
DA:5222,0
DA:5223,0
DA:5225,0
DA:5226,0
DA:5227,0
DA:5230,0
DA:5231,0
DA:5232,0
DA:5244,0
DA:5245,0
DA:5249,0
DA:5250,0
DA:5251,0
DA:5255,0
DA:5258,0
DA:5259,0
DA:5260,0
DA:5263,0
DA:5264,0
DA:5268,0
DA:5272,0
DA:5273,0
DA:5274,0
DA:5275,0
DA:5278,0
DA:5281,0
DA:5283,0
DA:5284,0
DA:5286,0
DA:5287,0
DA:5288,0
DA:5289,0
DA:5290,0
DA:5291,0
DA:5292,0
DA:5293,0
DA:5296,0
DA:5301,0
DA:5302,0
DA:5303,0
DA:5304,0
DA:5305,0
DA:5306,0
DA:5307,0
DA:5308,0
DA:5312,0
DA:5314,0
DA:5315,0
DA:5316,0
DA:5317,0
DA:5319,0
DA:5320,0
DA:5322,0
DA:5325,0
DA:5326,0
DA:5327,0
DA:5329,0
DA:5332,0
DA:5337,0
DA:5339,0
DA:5340,0
DA:5341,0
DA:5342,0
DA:5343,0
DA:5344,0
DA:5346,0
DA:5348,0
DA:5352,0
DA:5354,0
DA:5356,0
DA:5357,0
DA:5358,0
DA:5359,0
DA:5360,0
DA:5363,0
DA:5368,0
DA:5372,0
DA:5374,0
DA:5375,0
DA:5376,0
DA:5377,0
DA:5378,0
DA:5379,0
DA:5382,0
DA:5383,0
DA:5384,0
DA:5385,0
DA:5387,0
DA:5388,0
DA:5389,0
DA:5391,0
DA:5392,0
DA:5405,0
DA:5407,0
DA:5409,0
DA:5412,0
DA:5413,0
DA:5414,0
DA:5416,0
DA:5417,0
DA:5418,0
DA:5419,0
DA:5422,0
DA:5423,0
DA:5425,0
DA:5426,0
DA:5429,0
DA:5430,0
DA:5433,0
DA:5434,0
DA:5578,0
DA:5582,0
DA:5584,0
DA:5585,0
DA:5586,0
DA:5587,0
DA:5589,0
DA:5590,0
DA:5591,0
DA:5592,0
DA:5593,0
DA:5594,0
DA:5595,0
DA:5597,0
DA:5601,0
DA:5602,0
DA:5604,0
DA:5606,0
DA:5607,0
DA:5608,0
DA:5610,0
DA:5612,0
DA:5613,0
DA:5615,0
DA:5616,0
DA:5618,0
DA:5619,0
DA:5621,0
DA:5623,0
DA:5625,0
DA:5626,0
DA:5627,0
DA:5628,0
DA:5629,0
DA:5630,0
DA:5631,0
DA:5632,0
DA:5634,0
DA:5635,0
DA:5636,0
DA:5639,0
DA:5642,0
DA:5643,0
DA:5644,0
DA:5645,0
DA:5646,0
DA:5647,0
DA:5648,0
DA:5649,0
DA:5650,0
DA:5651,0
DA:5652,0
DA:5653,0
DA:5654,0
DA:5655,0
DA:5656,0
DA:5657,0
DA:5658,0
DA:5659,0
DA:5660,0
DA:5661,0
DA:5662,0
DA:5663,0
DA:5664,0
DA:5665,0
DA:5666,0
DA:5667,0
DA:5668,0
DA:5669,0
DA:5674,0
DA:5676,0
DA:5678,0
DA:5679,0
DA:5725,0
DA:5727,0
DA:5728,0
DA:5729,0
DA:5730,0
DA:5731,0
DA:5732,0
DA:5750,0
DA:5752,0
DA:5753,0
DA:5754,0
DA:5755,0
DA:5758,0
DA:5760,0
DA:5761,0
DA:5762,0
DA:5763,0
DA:5766,15
DA:5767,15
DA:5770,0
DA:5772,0
DA:5780,15
DA:5782,30
DA:5783,15
DA:5784,15
DA:5786,15
DA:5806,0
DA:5807,0
DA:5808,0
DA:5809,0
DA:5832,3
DA:5833,3
DA:5836,6
DA:5839,12
DA:5847,0
DA:5849,0
DA:5850,0
DA:5851,0
DA:5853,0
DA:5855,0
DA:5856,0
DA:5857,0
DA:5858,0
DA:5859,0
DA:5861,0
DA:5864,0
DA:5889,0
DA:5892,0
DA:5893,0
DA:5894,0
DA:5895,0
DA:5896,0
DA:5897,0
DA:5947,3
DA:5948,3
DA:5951,0
DA:5952,0
DA:5958,3
DA:5961,3
DA:5962,3
DA:5963,3
DA:5964,3
DA:5965,6
DA:5967,3
DA:5969,3
DA:5970,3
DA:5973,3
DA:5974,6
DA:5975,6
DA:5978,429
DA:5983,858
DA:5984,429
DA:5987,429
DA:5988,426
DA:5989,426
DA:5990,426
DA:5991,426
DA:5992,426
DA:5994,0
DA:5995,0
DA:5996,0
DA:6000,3
DA:6002,3
DA:6003,3
DA:6005,3
DA:6006,3
DA:6008,3
DA:6009,0
DA:6010,3
DA:6011,0
DA:6012,0
DA:6014,3
DA:6015,3
DA:6016,3
DA:6017,3
DA:6020,0
DA:6024,3
DA:6025,3
DA:6032,3
DA:6035,0
DA:6037,0
DA:6040,0
DA:6042,0
DA:6045,0
DA:6048,0
DA:6050,0
DA:6052,0
DA:6056,0
DA:6058,0
DA:6059,0
DA:6062,21
DA:6063,21
DA:6064,21
DA:6067,0
DA:6068,0
DA:6070,0
DA:6071,0
DA:6073,0
DA:6075,3
DA:6125,0
DA:6126,0
DA:6127,0
DA:6128,0
DA:6131,0
DA:6132,0
DA:6133,0
DA:6135,0
DA:6136,0
DA:6141,0
DA:6142,0
DA:6143,0
DA:6146,0
DA:6151,0
DA:6153,0
DA:6154,0
DA:6156,0
DA:6158,0
DA:6159,0
DA:6162,0
DA:6165,0
DA:6168,0
DA:6169,0
DA:6170,0
DA:6184,0
DA:6442,0
DA:6443,0
DA:6444,0
DA:6445,0
DA:6448,0
DA:6450,0
DA:6451,0
DA:6452,0
DA:6453,0
DA:6454,0
DA:6455,0
DA:6457,0
DA:6458,0
DA:6460,0
DA:6465,0
DA:6467,0
DA:6469,0
DA:6473,0
DA:6474,0
DA:6475,0
DA:6476,0
DA:6480,0
DA:6481,0
DA:6483,0
DA:6484,0
DA:6485,0
DA:6486,0
DA:6489,0
DA:6490,0
DA:6492,0
DA:6496,0
DA:6497,0
DA:6500,0
DA:6504,0
DA:6507,0
DA:6510,0
DA:6512,0
DA:6513,0
DA:6514,0
DA:6517,0
DA:6518,0
DA:6519,0
DA:6522,0
DA:6523,0
DA:6525,0
DA:6526,0
DA:6527,0
DA:6528,0
DA:6529,0
DA:6530,0
DA:6532,0
DA:6533,0
DA:6534,0
DA:6537,0
DA:6538,0
DA:6539,0
DA:6542,0
DA:6543,0
DA:6546,0
DA:6550,0
DA:6551,0
DA:6552,0
DA:6555,0
DA:6556,0
DA:6557,0
DA:6560,0
DA:6561,0
DA:6562,0
DA:6563,0
DA:6564,0
DA:6566,0
DA:6567,0
DA:6568,0
DA:6570,0
DA:6576,0
DA:6578,0
DA:6579,0
DA:6582,0
DA:6585,0
DA:6586,0
DA:6587,0
DA:6589,0
DA:6590,0
DA:6591,0
DA:6592,0
DA:6593,0
DA:6594,0
DA:6595,0
DA:6597,0
DA:6599,0
DA:6601,0
DA:6603,0
DA:6606,0
DA:6607,0
DA:6609,0
DA:6610,0
DA:6612,0
DA:6614,0
DA:6619,0
DA:6621,0
DA:6623,0
DA:6624,0
DA:6625,0
DA:6626,0
DA:6627,0
DA:6632,0
DA:6633,0
DA:6634,0
DA:6635,0
DA:6638,0
DA:6639,0
DA:6640,0
DA:6641,0
DA:6644,0
DA:6645,0
DA:6646,0
DA:6648,0
DA:6649,0
DA:6651,0
DA:6652,0
DA:6653,0
DA:6654,0
DA:6655,0
DA:6657,0
DA:6658,0
DA:6659,0
DA:6660,0
DA:6661,0
DA:6663,0
DA:6665,0
DA:6666,0
DA:6667,0
DA:6670,0
DA:6674,0
DA:6675,0
DA:6676,0
DA:6680,0
DA:6684,0
DA:6685,0
DA:6687,0
DA:6688,0
DA:6689,0
DA:6690,0
DA:6691,0
DA:6692,0
DA:6695,0
DA:6696,0
DA:6708,0
DA:6709,0
DA:6710,0
DA:6711,0
DA:6712,0
DA:6713,0
DA:6716,0
DA:6717,0
DA:6720,0
DA:6722,0
DA:6725,0
DA:6726,0
DA:6727,0
DA:6728,0
DA:6732,0
DA:6733,0
DA:6735,0
DA:6737,0
DA:6739,0
DA:6740,0
DA:6741,0
DA:6742,0
DA:6743,0
DA:6745,0
DA:6747,0
DA:6748,0
DA:6749,0
DA:6752,0
DA:6753,0
DA:6754,0
DA:6757,0
DA:6758,0
DA:6760,0
DA:6762,0
DA:6763,0
DA:6764,0
DA:6765,0
DA:6766,0
DA:6769,0
DA:6770,0
DA:6773,0
DA:6774,0
DA:6775,0
DA:6776,0
DA:6778,0
DA:6921,0
DA:6922,0
DA:6923,0
DA:6924,0
DA:6928,0
DA:6929,0
DA:6930,0
DA:6931,0
DA:6934,0
DA:6938,0
DA:6939,0
DA:6940,0
DA:6942,0
DA:6943,0
DA:6944,0
DA:6945,0
DA:6946,0
DA:6948,0
DA:6949,0
DA:6950,0
DA:6951,0
DA:6952,0
DA:6954,0
DA:6955,0
DA:6956,0
DA:6957,0
DA:6958,0
DA:6960,0
DA:6961,0
DA:6962,0
DA:6963,0
DA:6964,0
DA:6966,0
DA:6967,0
DA:6968,0
DA:6969,0
DA:6970,0
DA:6973,0
DA:6976,0
DA:6980,0
DA:6981,0
DA:6982,0
DA:6983,0
DA:6984,0
DA:6985,0
DA:6986,0
DA:6987,0
DA:6988,0
DA:6989,0
DA:6990,0
DA:6991,0
DA:6994,0
DA:6995,0
DA:6998,0
DA:7000,0
DA:7001,0
DA:7002,0
DA:7004,0
DA:7005,0
DA:7006,0
DA:7009,0
DA:7012,0
DA:7015,0
DA:7016,0
DA:7017,0
DA:7018,0
DA:7019,0
DA:7022,0
DA:7024,0
DA:7025,0
DA:7028,0
DA:7030,0
DA:7031,0
DA:7032,0
DA:7033,0
DA:7034,0
DA:7035,0
DA:7036,0
DA:7037,0
DA:7039,0
DA:7042,0
DA:7043,0
DA:7044,0
DA:7045,0
DA:7048,0
DA:7050,0
DA:7051,0
DA:7052,0
DA:7053,0
DA:7054,0
DA:7055,0
DA:7056,0
DA:7062,0
DA:7064,0
DA:7066,0
DA:7067,0
DA:7068,0
DA:7071,0
DA:7072,0
DA:7074,0
DA:7075,0
DA:7076,0
DA:7077,0
DA:7078,0
DA:7080,0
DA:7081,0
DA:7083,0
DA:7084,0
DA:7085,0
DA:7087,0
DA:7089,0
DA:7090,0
DA:7099,0
DA:7100,0
DA:7101,0
DA:7102,0
DA:7103,0
DA:7104,0
DA:7106,0
DA:7107,0
DA:7109,0
DA:7110,0
DA:7112,0
DA:7113,0
DA:7114,0
DA:7115,0
DA:7117,0
DA:7120,0
DA:7121,0
DA:7122,0
DA:7124,0
DA:7125,0
DA:7126,0
DA:7129,0
DA:7133,0
DA:7138,0
DA:7140,0
DA:7143,0
DA:7145,0
DA:7147,0
DA:7148,0
DA:7149,0
DA:7156,0
DA:7157,0
DA:7158,0
DA:7159,0
DA:7160,0
DA:7161,0
DA:7166,0
DA:7167,0
DA:7168,0
DA:7169,0
DA:7170,0
DA:7171,0
DA:7174,0
DA:7175,0
DA:7176,0
DA:7177,0
DA:7180,0
DA:7181,0
DA:7184,0
DA:7185,0
DA:7186,0
DA:7189,0
DA:7190,0
DA:7191,0
DA:7192,0
DA:7194,0
DA:7195,0
DA:7196,0
DA:7197,0
DA:7199,0
DA:7200,0
DA:7201,0
DA:7202,0
DA:7203,0
DA:7205,0
DA:7207,0
DA:7209,0
DA:7210,0
DA:7211,0
DA:7212,0
DA:7214,0
DA:7215,0
DA:7217,0
DA:7218,0
DA:7219,0
DA:7220,0
DA:7221,0
DA:7222,0
DA:7227,0
DA:7228,0
DA:7229,0
DA:7232,0
DA:7237,0
DA:7238,0
DA:7239,0
DA:7240,0
DA:7241,0
DA:7242,0
DA:7243,0
DA:7244,0
DA:7245,0
DA:7246,0
DA:7247,0
DA:7248,0
DA:7249,0
DA:7250,0
DA:7251,0
DA:7254,0
DA:7255,0
DA:7256,0
DA:7257,0
DA:7258,0
DA:7259,0
DA:7260,0
DA:7261,0
DA:7262,0
DA:7263,0
DA:7265,0
DA:7267,0
DA:7268,0
DA:7269,0
DA:7274,0
DA:7275,0
DA:7276,0
DA:7277,0
DA:7278,0
DA:7279,0
DA:7280,0
DA:7281,0
DA:7282,0
DA:7285,0
DA:7286,0
DA:7287,0
DA:7288,0
DA:7291,0
DA:7293,0
DA:7294,0
DA:7295,0
DA:7297,0
DA:7299,0
DA:7300,0
DA:7301,0
DA:7302,0
DA:7303,0
DA:7304,0
DA:7307,0
DA:7309,0
DA:7311,0
DA:7313,0
DA:7315,0
DA:7317,0
DA:7318,0
DA:7319,0
DA:7320,0
DA:7322,0
DA:7323,0
DA:7324,0
DA:7326,0
DA:7327,0
DA:7330,0
DA:7331,0
DA:7333,0
DA:7336,0
DA:7337,0
DA:7338,0
DA:7339,0
DA:7345,0
DA:7346,0
DA:7348,3
DA:7350,3
DA:7351,6
DA:7352,3
DA:7353,6
DA:7355,12
DA:7356,3
DA:7357,3
DA:7358,3
DA:7359,6
DA:7361,0
DA:7363,0
DA:7364,0
DA:7365,0
DA:7366,0
DA:7367,0
DA:7368,0
DA:7369,0
DA:7370,0
DA:7371,0
DA:7372,0
DA:7373,0
DA:7375,0
DA:7376,0
DA:7378,0
DA:7379,0
DA:7380,0
DA:7381,0
DA:7382,0
DA:7383,0
DA:7384,0
DA:7385,0
DA:7386,0
DA:7387,0
DA:7388,0
DA:7389,0
DA:7390,0
DA:7391,0
DA:7392,0
DA:7394,0
DA:7395,0
DA:7398,0
DA:7399,0
DA:7400,0
DA:7403,0
DA:7404,0
DA:7405,0
DA:7407,0
DA:7408,0
DA:7410,3
DA:7411,3
DA:7412,0
DA:7413,0
DA:7414,0
DA:7415,0
DA:7416,0
DA:7420,3
DA:7421,3
DA:7422,3
DA:7424,3
DA:7425,3
DA:7426,3
DA:7427,3
DA:7428,6
DA:7429,3
DA:7431,3
DA:7433,3
DA:7434,3
DA:7435,3
DA:7436,3
DA:7439,6
DA:7443,6
DA:7445,6
DA:7447,9
DA:7448,9
DA:7449,3
DA:7452,9
DA:7459,9
DA:7464,9
DA:7466,9
DA:7467,3
DA:7468,3
DA:7471,3
DA:7473,3
DA:7475,6
DA:7477,3
DA:7482,3
DA:7485,3
DA:7486,3
DA:7487,0
DA:7489,3
DA:7490,3
DA:7491,3
DA:7494,3
DA:7495,0
DA:7496,0
DA:7498,0
DA:7499,0
DA:7500,0
DA:7501,0
DA:7504,3
DA:7505,3
DA:7507,3
DA:7508,3
DA:7509,3
DA:7510,3
DA:7511,0
DA:7512,0
DA:7514,3
DA:7515,3
DA:7518,0
DA:7519,0
DA:7521,0
DA:7524,0
DA:7525,0
DA:7526,0
DA:7529,3
DA:7531,3
DA:7535,3
DA:7537,3
DA:7538,3
DA:7539,0
DA:7542,0
DA:7543,0
DA:7547,0
DA:7552,0
DA:7553,0
DA:7554,0
DA:7555,0
DA:7559,3
DA:7560,3
DA:7564,3
DA:7565,0
DA:7566,0
DA:7567,0
DA:7568,0
DA:7569,0
DA:7573,0
DA:7581,3
DA:7582,0
DA:7584,3
DA:7585,3
DA:7586,3
DA:7588,3
DA:7589,0
DA:7590,0
DA:7594,3
DA:7595,3
DA:7597,0
DA:7599,3
DA:7600,3
DA:7601,3
DA:7602,3
DA:7603,3
DA:7606,3
DA:7607,0
DA:7608,3
DA:7609,3
DA:7610,3
DA:7612,6
DA:7614,3
DA:7615,3
DA:7618,3
DA:7619,0
DA:7622,3
DA:7623,3
DA:7630,3
DA:7631,3
DA:7632,3
DA:7633,3
DA:7634,6
DA:7635,3
DA:7637,3
DA:7640,3
DA:7641,0
DA:7642,0
DA:7645,3
DA:7649,3
DA:7650,0
DA:7651,0
DA:7652,0
DA:7653,0
DA:7654,0
DA:7655,0
DA:7656,3
DA:7659,3
DA:7661,9
DA:7662,0
DA:7670,3
DA:7671,3
DA:7672,3
DA:7673,3
DA:7674,3
DA:7676,3
DA:7677,0
DA:7678,0
DA:7682,3
DA:7683,3
DA:7684,0
DA:7685,0
DA:7686,0
DA:7688,0
DA:7691,0
DA:7692,0
DA:7693,0
DA:7694,0
DA:7695,0
DA:7696,0
DA:7698,0
DA:7699,0
DA:7702,0
DA:7704,0
DA:7705,0
DA:7706,0
DA:7707,0
DA:7711,3
DA:7712,3
DA:7714,0
DA:7715,0
DA:7716,0
DA:7717,0
DA:7720,0
DA:7721,0
DA:7724,0
DA:7726,0
DA:7727,0
DA:7729,0
DA:7731,0
DA:7732,0
DA:7733,0
DA:7734,0
DA:7735,0
DA:7736,0
DA:7738,0
DA:7739,0
DA:7740,0
DA:7741,0
DA:7742,0
DA:7745,0
DA:7746,0
DA:7747,0
DA:7749,0
DA:7751,0
DA:7752,0
DA:7754,0
DA:7756,0
DA:7757,0
DA:7758,0
DA:7759,0
DA:7763,0
DA:7764,0
DA:7765,0
DA:7766,0
DA:7767,0
DA:7769,0
DA:7771,3
DA:7774,0
DA:7776,3
DA:7778,0
DA:7780,0
DA:7781,0
DA:7785,0
DA:7788,0
DA:7789,0
DA:7790,0
DA:7791,6
DA:7792,3
DA:7796,3
DA:7799,3
DA:7800,6
DA:7801,12
DA:7805,6
DA:7806,3
DA:7807,0
DA:7808,0
DA:7810,0
DA:7813,3
DA:7814,0
DA:7816,9
DA:7821,18
DA:7823,3
DA:7824,6
DA:7825,3
DA:7830,3
DA:7831,3
DA:7833,3
DA:7834,3
DA:7837,6
DA:7838,6
DA:7839,3
DA:7840,3
DA:7844,3
DA:7845,3
DA:7846,0
DA:7847,0
DA:7848,0
DA:7849,0
DA:7850,0
DA:7853,6
DA:7854,3
DA:7855,0
DA:7859,0
DA:7860,0
DA:7863,0
DA:7864,0
DA:7865,0
DA:7866,0
DA:7869,3
DA:7870,0
DA:7871,0
DA:7872,0
DA:7876,3
DA:7877,0
DA:7878,0
DA:7879,0
DA:7880,0
DA:7884,3
DA:7885,0
DA:7886,0
DA:7887,0
DA:7891,3
DA:7892,0
DA:7893,0
DA:7894,0
DA:7900,3
DA:7903,3
DA:7904,3
DA:7907,3
DA:7909,3
DA:7911,3
DA:7914,3
DA:7915,3
DA:7916,0
DA:7917,0
DA:7919,3
DA:7922,3
DA:7923,3
DA:7926,0
DA:7927,0
DA:7928,0
DA:7931,0
DA:7934,0
DA:7939,0
DA:7942,0
DA:7946,0
DA:7948,0
DA:7950,0
DA:7951,0
DA:7952,0
DA:7953,0
DA:7955,0
DA:7956,0
DA:7957,0
DA:7959,0
DA:7961,0
DA:7962,0
DA:7963,0
DA:7966,0
DA:7967,0
DA:7969,0
DA:7972,0
DA:7973,0
DA:7975,0
DA:7976,0
DA:7977,0
DA:7978,0
DA:7981,0
DA:7982,0
DA:7983,0
DA:7984,0
DA:7985,0
DA:7987,0
DA:7988,0
DA:7991,0
DA:7994,0
DA:7995,0
DA:7996,0
DA:7997,0
DA:7998,0
DA:7999,0
DA:8000,0
DA:8001,0
DA:8002,0
DA:8003,0
DA:8005,0
DA:8009,0
DA:8010,0
DA:8011,0
DA:8013,0
DA:8018,0
DA:8019,0
DA:8020,0
DA:8021,0
DA:8022,0
DA:8024,0
DA:8027,0
DA:8028,0
DA:8030,0
DA:8031,0
DA:8034,3
DA:8035,3
DA:8036,3
DA:8039,3
DA:8043,3
DA:8046,3
DA:8047,0
DA:8048,0
DA:8049,0
DA:8050,0
DA:8051,0
DA:8058,6
DA:8059,3
DA:8060,0
DA:8061,0
DA:8065,6
DA:8066,3
DA:8067,0
DA:8068,3
DA:8069,0
DA:8071,3
DA:8072,0
DA:8073,0
DA:8074,0
DA:8079,3
DA:8080,3
DA:8081,0
DA:8082,0
DA:8083,0
DA:8084,0
DA:8085,0
DA:8088,0
DA:8090,3
DA:8091,3
DA:8092,3
DA:8093,3
DA:8095,3
DA:8096,3
DA:8097,0
DA:8098,0
DA:8099,0
DA:8100,3
DA:8102,6
DA:8103,3
DA:8104,3
DA:8105,3
DA:8106,0
DA:8107,0
DA:8109,3
DA:8113,3
DA:8115,6
DA:8116,3
DA:8117,3
DA:8118,0
DA:8119,0
DA:8122,3
DA:8125,3
DA:8127,3
DA:8175,3
DA:8177,6
DA:8178,3
DA:8179,9
DA:8182,12
DA:8184,3
DA:8185,3
DA:8196,3
DA:8198,3
DA:8199,3
DA:8200,3
DA:8201,3
DA:8202,3
DA:8204,6
DA:8205,3
DA:8347,0
DA:8349,0
DA:8358,0
DA:8363,0
DA:8820,3
DA:8821,3
DA:8822,3
DA:8823,3
DA:8971,0
DA:8973,0
DA:8975,0
DA:8976,0
DA:8977,0
DA:8979,0
DA:8980,0
DA:8981,0
DA:8982,0
DA:8983,0
DA:8985,0
DA:8986,0
DA:8988,0
DA:8989,0
DA:8990,0
DA:8991,0
DA:8992,0
DA:8994,0
DA:8995,0
DA:8998,0
DA:9001,0
DA:9007,0
DA:9013,0
DA:9014,0
DA:9015,0
DA:9018,0
DA:9019,0
DA:9020,0
DA:9021,0
DA:9026,0
DA:9027,0
DA:9028,0
DA:9031,0
DA:9035,0
DA:9036,0
DA:9037,0
DA:9038,0
DA:9039,0
DA:9040,0
DA:9041,0
DA:9042,0
DA:9043,0
DA:9044,0
DA:9045,0
DA:9047,0
DA:9049,0
DA:9053,0
DA:9058,0
DA:9060,0
DA:9061,0
DA:9063,0
DA:9064,0
DA:9069,0
DA:9072,0
DA:9074,0
DA:9075,0
DA:9079,6
DA:9080,6
DA:9082,6
DA:9086,0
DA:9090,0
DA:9091,0
DA:9092,0
DA:9093,0
DA:9094,0
DA:9095,0
DA:9096,0
DA:9098,0
DA:9100,0
DA:9101,0
DA:9104,0
DA:9105,0
DA:9106,0
DA:9109,0
DA:9110,0
DA:9111,0
DA:9112,0
DA:9113,0
DA:9114,0
DA:9115,0
DA:9116,0
DA:9122,0
DA:9124,0
DA:9125,0
DA:9126,0
DA:9127,0
DA:9128,0
DA:9129,0
DA:9130,0
DA:9132,0
DA:9136,0
DA:9138,0
DA:9141,0
DA:9142,0
DA:9144,0
DA:9146,0
DA:9147,0
DA:9148,0
DA:9149,0
DA:9155,0
DA:9157,0
DA:9158,0
DA:9159,0
DA:9160,0
DA:9161,0
DA:9163,0
DA:9167,0
DA:9169,0
DA:9172,0
DA:9174,0
DA:9175,0
DA:9177,0
DA:9179,0
DA:9180,0
DA:9182,0
DA:9259,0
DA:9260,0
DA:9261,0
DA:9263,0
DA:9280,0
DA:9281,0
DA:9282,0
DA:9283,0
DA:9284,0
DA:9285,0
DA:9287,0
DA:9289,0
DA:9290,0
DA:9291,0
DA:9292,0
DA:9293,0
DA:9295,0
DA:9296,0
DA:9297,0
DA:9299,0
DA:9300,0
DA:9303,0
DA:9304,0
DA:9307,0
DA:9312,0
DA:9313,0
DA:9314,0
DA:9316,0
DA:9317,0
DA:9318,0
DA:9325,0
DA:9326,0
DA:9328,0
DA:9331,0
DA:9332,0
DA:9333,0
DA:9335,0
DA:9337,0
DA:9338,0
DA:9339,0
DA:9340,0
DA:9342,0
DA:9343,0
DA:9344,0
DA:9346,0
DA:9349,0
DA:9350,0
DA:9351,0
DA:9353,0
DA:9354,0
DA:9357,0
DA:9385,0
DA:9386,0
DA:9390,0
DA:9391,0
DA:9393,0
DA:9395,0
DA:9396,0
DA:9397,0
DA:9398,0
DA:9400,0
DA:9403,0
DA:9406,0
DA:9419,0
DA:9420,0
DA:9424,0
DA:9426,0
DA:9427,0
DA:9428,0
DA:9430,0
DA:9431,0
DA:9432,0
DA:9433,0
DA:9434,0
DA:9435,0
DA:9438,0
DA:9439,0
DA:9440,0
DA:9441,0
DA:9442,0
DA:9445,0
DA:9446,0
DA:9447,0
DA:9448,0
DA:9449,0
DA:9450,0
DA:9451,0
DA:9453,0
DA:9454,0
DA:9455,0
DA:9456,0
DA:9457,0
DA:9458,0
DA:9459,0
DA:9461,0
DA:9462,0
DA:9465,0
DA:9466,0
DA:9467,0
DA:9468,0
DA:9469,0
DA:9472,0
DA:9478,0
DA:9479,0
DA:9480,0
DA:9483,0
DA:9484,0
DA:9485,0
DA:9486,0
DA:9489,0
DA:9490,0
DA:9492,0
DA:9493,0
DA:9495,0
DA:9496,0
DA:9497,0
DA:9498,0
DA:9500,0
DA:9502,0
DA:9503,0
DA:9504,0
DA:9505,0
DA:9508,0
DA:9517,0
DA:9519,0
DA:9521,0
DA:9524,0
DA:9525,0
DA:9526,0
DA:9527,0
DA:9528,0
DA:9529,0
DA:9530,0
DA:9531,0
DA:9533,0
DA:9536,0
DA:9537,0
DA:9539,0
DA:9540,0
DA:9543,0
DA:9544,0
DA:9545,0
DA:9546,0
DA:9547,0
DA:9550,0
DA:9552,0
DA:9553,0
DA:9554,0
DA:9557,0
DA:9558,0
DA:9560,0
DA:9561,0
DA:9562,0
DA:9565,0
DA:9566,0
DA:9567,0
DA:9568,0
DA:9571,0
DA:9574,0
DA:9576,0
DA:9582,0
DA:9583,0
DA:9585,0
DA:9588,0
DA:9589,0
DA:9590,0
DA:9593,0
DA:9594,0
DA:9595,0
DA:9598,0
DA:9599,0
DA:9600,0
DA:9602,0
DA:9604,0
DA:9605,0
DA:9606,0
DA:9608,0
DA:9609,0
DA:9611,0
DA:9613,0
DA:9617,0
DA:9619,0
DA:9620,0
DA:9621,0
DA:9622,0
DA:9625,0
DA:9627,0
DA:9649,0
DA:9650,0
DA:9654,0
DA:9655,0
DA:9657,0
DA:9659,0
DA:9660,0
DA:9661,0
DA:9664,0
DA:9665,0
DA:9666,0
DA:9667,0
DA:9668,0
DA:9669,0
DA:9674,0
DA:9676,0
DA:9677,0
DA:9678,0
DA:9680,0
DA:9682,0
DA:9683,0
DA:9684,0
DA:9686,0
DA:9687,0
DA:9689,0
DA:9690,0
DA:9692,0
DA:9693,0
DA:9694,0
DA:9695,0
DA:9697,0
DA:9702,0
DA:9705,0
DA:9707,0
DA:9710,0
DA:9711,0
DA:9713,0
DA:9715,0
DA:9718,0
DA:9719,0
DA:9723,0
DA:9726,0
DA:9728,0
DA:9732,0
DA:9733,0
DA:9734,0
DA:9735,0
DA:9736,0
DA:9738,0
DA:9740,0
DA:9741,0
DA:9742,0
DA:9743,0
DA:9744,0
DA:9745,0
DA:9746,0
DA:9748,0
DA:9751,0
DA:9752,0
DA:9756,3
DA:9757,3
DA:9759,3
DA:9761,3
DA:9763,3
DA:9765,3
DA:9766,3
DA:9767,3
DA:9770,3
DA:9775,0
DA:9776,0
DA:9779,0
DA:9781,3
DA:9783,3
DA:9784,3
DA:9786,3
DA:9787,3
DA:9789,3
DA:9791,0
DA:9792,0
DA:9793,0
DA:9796,6
DA:9797,3
DA:9799,3
DA:9802,0
DA:9803,0
DA:9805,3
DA:9816,3
DA:9822,3
DA:9917,0
DA:9919,0
DA:10244,3
DA:10245,3
DA:10246,3
LF:3109
LH:659
end_of_record
TN:
SF:/home/gius/git/llama-cli/src/annotation/annotation.cpp
FN:103,116,_Z29parse_str_replace_annotationsRKNSt7__cxx1112basic_stringIcSt11char_traitsIcESaIcEEE
FN:125,163,_Z22parse_read_annotationsRKNSt7__cxx1112basic_stringIcSt11char_traitsIcESaIcEEE
FN:15,27,_ZL4attrRKNSt7__cxx1112basic_stringIcSt11char_traitsIcESaIcEEES6_
FN:179,240,_Z17strip_annotationsRKNSt7__cxx1112basic_stringIcSt11char_traitsIcESaIcEEE
FN:31,64,_ZL10find_blockRKNSt7__cxx1112basic_stringIcSt11char_traitsIcESaIcEEES6_RmRS4_S8_
FN:73,84,_Z23parse_write_annotationsRKNSt7__cxx1112basic_stringIcSt11char_traitsIcESaIcEEE
FN:89,96,_ZL13child_contentRKNSt7__cxx1112basic_stringIcSt11char_traitsIcESaIcEEES6_
FNDA:59,_Z29parse_str_replace_annotationsRKNSt7__cxx1112basic_stringIcSt11char_traitsIcESaIcEEE
FNDA:61,_Z22parse_read_annotationsRKNSt7__cxx1112basic_stringIcSt11char_traitsIcESaIcEEE
FNDA:40,_ZL4attrRKNSt7__cxx1112basic_stringIcSt11char_traitsIcESaIcEEES6_
FNDA:31,_Z17strip_annotationsRKNSt7__cxx1112basic_stringIcSt11char_traitsIcESaIcEEE
FNDA:149,_ZL10find_blockRKNSt7__cxx1112basic_stringIcSt11char_traitsIcESaIcEEES6_RmRS4_S8_
FNDA:62,_Z23parse_write_annotationsRKNSt7__cxx1112basic_stringIcSt11char_traitsIcESaIcEEE
FNDA:6,_ZL13child_contentRKNSt7__cxx1112basic_stringIcSt11char_traitsIcESaIcEEES6_
FNF:7
FNH:7
DA:15,40
DA:16,40
DA:17,40
DA:18,40
DA:19,10
DA:21,35
DA:22,35
DA:23,35
DA:24,0
DA:26,35
DA:27,40
DA:31,149
DA:33,149
DA:34,149
DA:36,149
DA:37,149
DA:38,120
DA:41,29
DA:42,29
DA:43,0
DA:45,29
DA:47,29
DA:48,29
DA:49,29
DA:50,1
DA:53,28
DA:55,28
DA:56,1
DA:58,28
DA:59,2
DA:62,28
DA:63,28
DA:64,149
DA:73,62
DA:74,62
DA:75,62
DA:76,62
DA:77,224
DA:78,19
DA:79,19
DA:80,19
DA:82,19
DA:83,124
DA:84,81
DA:89,6
DA:90,6
DA:91,6
DA:92,6
DA:93,6
DA:95,0
DA:96,6
DA:103,59
DA:104,59
DA:105,59
DA:106,59
DA:107,183
DA:108,6
DA:109,6
DA:110,3
DA:111,3
DA:112,3
DA:114,3
DA:115,118
DA:116,62
DA:125,61
DA:126,61
DA:127,61
DA:128,61
DA:130,66
DA:131,66
DA:132,61
DA:134,5
DA:135,5
DA:136,0
DA:138,5
DA:139,5
DA:141,5
DA:142,5
DA:143,5
DA:144,0
DA:147,5
DA:148,5
DA:149,4
DA:150,4
DA:152,5
DA:153,3
DA:154,1
DA:156,1
DA:159,5
DA:160,5
DA:161,10
DA:162,122
DA:163,61
DA:179,31
DA:180,31
DA:184,48
DA:185,48
DA:186,31
DA:188,17
DA:189,17
DA:190,17
DA:191,0
DA:193,17
DA:194,17
DA:195,17
DA:196,0
DA:198,17
DA:199,34
DA:203,34
DA:204,34
DA:205,31
DA:207,3
DA:208,3
DA:209,0
DA:211,3
DA:212,3
DA:213,3
DA:214,0
DA:216,3
DA:217,3
DA:218,3
DA:219,0
DA:221,3
DA:222,6
DA:226,34
DA:227,34
DA:228,31
DA:230,3
DA:231,3
DA:232,0
DA:234,3
DA:235,3
DA:236,3
DA:237,3
DA:239,31
DA:240,0
LF:136
LH:124
end_of_record
TN:
SF:/home/gius/git/llama-cli/src/annotation/annotation_test.cpp
FN:132,194,_ZL20DOCTEST_ANON_FUNC_52v
FN:8,95,_ZL20DOCTEST_ANON_FUNC_27v
FN:97,130,_ZL20DOCTEST_ANON_FUNC_45v
FNDA:4,_ZL20DOCTEST_ANON_FUNC_52v
FNDA:6,_ZL20DOCTEST_ANON_FUNC_27v
FNDA:2,_ZL20DOCTEST_ANON_FUNC_45v
FNF:3
FNH:3
DA:8,6
DA:9,6
DA:10,2
DA:17,2
DA:18,1
DA:19,1
DA:20,1
DA:22,1
DA:24,1
DA:26,1
DA:27,3
DA:29,2
DA:30,1
DA:31,1
DA:32,1
DA:34,1
DA:36,1
DA:38,1
DA:39,3
DA:40,8
DA:42,6
DA:43,1
DA:47,1
DA:48,1
DA:49,1
DA:50,1
DA:52,1
DA:54,1
DA:56,1
DA:58,1
DA:60,1
DA:61,2
DA:62,7
DA:64,6
DA:65,2
DA:67,2
DA:68,1
DA:69,1
DA:70,1
DA:72,1
DA:73,3
DA:75,2
DA:76,1
DA:77,1
DA:78,1
DA:80,1
DA:81,3
DA:82,8
DA:84,6
DA:85,1
DA:87,1
DA:88,1
DA:89,1
DA:90,1
DA:92,1
DA:93,2
DA:94,7
DA:95,6
DA:97,2
DA:98,2
DA:99,2
DA:106,2
DA:107,1
DA:108,1
DA:109,1
DA:111,1
DA:113,1
DA:115,1
DA:117,1
DA:118,3
DA:120,2
DA:121,1
DA:122,1
DA:123,1
DA:125,1
DA:127,1
DA:128,3
DA:129,4
DA:130,2
DA:132,4
DA:133,4
DA:134,2
DA:136,2
DA:137,1
DA:138,1
DA:139,1
DA:141,1
DA:143,1
DA:145,1
DA:147,1
DA:149,1
DA:150,3
DA:152,2
DA:153,1
DA:154,1
DA:155,1
DA:157,1
DA:159,1
DA:160,3
DA:161,6
DA:163,4
DA:164,1
DA:166,1
DA:167,1
DA:168,1
DA:169,1
DA:171,1
DA:173,1
DA:175,1
DA:176,2
DA:177,5
DA:179,4
DA:180,1
DA:182,1
DA:183,1
DA:184,1
DA:185,1
DA:187,1
DA:189,1
DA:191,1
DA:192,2
DA:193,5
DA:194,4
LF:123
LH:123
end_of_record
TN:
SF:/home/gius/git/llama-cli/src/annotation/annotations_it.cpp
FN:121,159,_ZL20DOCTEST_ANON_FUNC_50v
FN:13,52,_ZL20DOCTEST_ANON_FUNC_27v
FN:130,130,_ZZL20DOCTEST_ANON_FUNC_50vENKUlRKSt6vectorI7MessageSaIS0_EEE_clES4_
FN:161,199,_ZL20DOCTEST_ANON_FUNC_57v
FN:169,171,_ZZL20DOCTEST_ANON_FUNC_57vENKUlRKSt6vectorI7MessageSaIS0_EEE_clES4_
FN:18,18,_ZZL20DOCTEST_ANON_FUNC_27vENKUlRKSt6vectorI7MessageSaIS0_EEE_clES4_
FN:201,238,_ZL20DOCTEST_ANON_FUNC_64v
FN:210,223,_ZZL20DOCTEST_ANON_FUNC_64vENKUlRKSt6vectorI7MessageSaIS0_EEE_clES4_
FN:54,76,_ZL20DOCTEST_ANON_FUNC_35v
FN:59,59,_ZZL20DOCTEST_ANON_FUNC_35vENKUlRKSt6vectorI7MessageSaIS0_EEE_clES4_
FN:78,119,_ZL20DOCTEST_ANON_FUNC_41v
FN:81,87,_ZZL20DOCTEST_ANON_FUNC_41vENKUlRKSt6vectorI7MessageSaIS0_EEE_clES4_
FNDA:3,_ZL20DOCTEST_ANON_FUNC_50v
FNDA:3,_ZL20DOCTEST_ANON_FUNC_27v
FNDA:3,_ZZL20DOCTEST_ANON_FUNC_50vENKUlRKSt6vectorI7MessageSaIS0_EEE_clES4_
FNDA:2,_ZL20DOCTEST_ANON_FUNC_57v
FNDA:2,_ZZL20DOCTEST_ANON_FUNC_57vENKUlRKSt6vectorI7MessageSaIS0_EEE_clES4_
FNDA:3,_ZZL20DOCTEST_ANON_FUNC_27vENKUlRKSt6vectorI7MessageSaIS0_EEE_clES4_
FNDA:2,_ZL20DOCTEST_ANON_FUNC_64v
FNDA:4,_ZZL20DOCTEST_ANON_FUNC_64vENKUlRKSt6vectorI7MessageSaIS0_EEE_clES4_
FNDA:2,_ZL20DOCTEST_ANON_FUNC_35v
FNDA:2,_ZZL20DOCTEST_ANON_FUNC_35vENKUlRKSt6vectorI7MessageSaIS0_EEE_clES4_
FNDA:4,_ZL20DOCTEST_ANON_FUNC_41v
FNDA:6,_ZZL20DOCTEST_ANON_FUNC_41vENKUlRKSt6vectorI7MessageSaIS0_EEE_clES4_
FNF:12
FNH:12
DA:13,3
DA:14,3
DA:15,3
DA:17,3
DA:18,3
DA:20,3
DA:21,1
DA:22,1
DA:23,1
DA:24,1
DA:25,1
DA:26,1
DA:28,1
DA:29,1
DA:30,1
DA:32,2
DA:33,4
DA:35,3
DA:36,2
DA:37,2
DA:38,2
DA:39,2
DA:40,2
DA:41,1
DA:42,1
DA:44,3
DA:45,2
DA:46,1
DA:48,2
DA:49,5
DA:50,3
DA:51,3
DA:52,3
DA:54,2
DA:55,2
DA:56,2
DA:58,2
DA:59,2
DA:60,2
DA:61,2
DA:62,2
DA:63,2
DA:64,2
DA:65,1
DA:67,2
DA:68,2
DA:69,1
DA:70,1
DA:72,3
DA:73,4
DA:74,2
DA:75,2
DA:76,2
DA:78,4
DA:79,4
DA:80,4
DA:81,6
DA:82,6
DA:83,6
DA:84,8
DA:86,4
DA:87,4
DA:89,4
DA:90,2
DA:91,2
DA:92,2
DA:93,2
DA:94,1
DA:96,2
DA:97,2
DA:98,1
DA:100,2
DA:101,6
DA:103,4
DA:104,2
DA:105,2
DA:106,2
DA:107,2
DA:108,2
DA:109,1
DA:111,2
DA:113,2
DA:114,1
DA:116,2
DA:117,6
DA:118,4
DA:119,4
DA:121,3
DA:122,3
DA:125,3
DA:126,3
DA:127,3
DA:129,3
DA:130,3
DA:132,3
DA:133,3
DA:134,3
DA:135,3
DA:137,3
DA:138,1
DA:140,1
DA:142,3
DA:143,3
DA:144,1
DA:145,1
DA:146,1
DA:147,1
DA:149,4
DA:150,3
DA:151,1
DA:152,1
DA:154,4
DA:155,6
DA:156,3
DA:157,3
DA:158,3
DA:159,3
DA:161,2
DA:162,2
DA:164,2
DA:165,2
DA:166,2
DA:168,2
DA:169,2
DA:170,2
DA:171,2
DA:173,2
DA:174,1
DA:175,1
DA:176,1
DA:177,1
DA:178,1
DA:179,1
DA:180,1
DA:182,1
DA:184,2
DA:185,3
DA:187,2
DA:188,1
DA:189,1
DA:190,1
DA:191,1
DA:192,1
DA:194,1
DA:195,3
DA:196,2
DA:197,2
DA:198,2
DA:199,2
DA:201,2
DA:202,2
DA:204,2
DA:205,2
DA:206,2
DA:208,2
DA:209,2
DA:210,4
DA:211,4
DA:212,4
DA:213,2
DA:216,2
DA:217,8
DA:218,6
DA:220,2
DA:222,4
DA:223,2
DA:225,2
DA:226,2
DA:227,2
DA:228,2
DA:229,1
DA:231,2
DA:232,2
DA:233,1
DA:235,2
DA:236,4
DA:237,2
DA:238,2
LF:178
LH:178
end_of_record
TN:
SF:/home/gius/git/llama-cli/src/command/command.cpp
FN:15,15,_ZL7is_exitRKNSt7__cxx1112basic_stringIcSt11char_traitsIcESaIcEEE
FN:19,24,_ZL11parse_slashRKNSt7__cxx1112basic_stringIcSt11char_traitsIcESaIcEEE
FN:28,42,_Z11parse_inputRKNSt7__cxx1112basic_stringIcSt11char_traitsIcESaIcEEE
FN:47,66,_Z8cmd_readRKNSt7__cxx1112basic_stringIcSt11char_traitsIcESaIcEEERSt6vectorI7MessageSaIS8_EERSo
FNDA:187,_ZL7is_exitRKNSt7__cxx1112basic_stringIcSt11char_traitsIcESaIcEEE
FNDA:36,_ZL11parse_slashRKNSt7__cxx1112basic_stringIcSt11char_traitsIcESaIcEEE
FNDA:187,_Z11parse_inputRKNSt7__cxx1112basic_stringIcSt11char_traitsIcESaIcEEE
FNDA:6,_Z8cmd_readRKNSt7__cxx1112basic_stringIcSt11char_traitsIcESaIcEEERSt6vectorI7MessageSaIS8_EERSo
FNF:4
FNH:4
DA:15,187
DA:19,36
DA:20,36
DA:21,36
DA:22,60
DA:23,36
DA:24,36
DA:28,187
DA:29,187
DA:30,81
DA:32,106
DA:33,5
DA:35,101
DA:36,5
DA:38,96
DA:39,36
DA:41,60
DA:42,534
DA:47,6
DA:48,6
DA:49,6
DA:50,3
DA:51,3
DA:55,3
DA:56,3
DA:57,3
DA:60,3
DA:63,6
DA:64,3
DA:65,3
DA:66,15
LF:31
LH:31
end_of_record
TN:
SF:/home/gius/git/llama-cli/src/command/command_test.cpp
FN:102,155,_ZL20DOCTEST_ANON_FUNC_46v
FN:11,100,_ZL20DOCTEST_ANON_FUNC_27v
FNDA:6,_ZL20DOCTEST_ANON_FUNC_46v
FNDA:9,_ZL20DOCTEST_ANON_FUNC_27v
FNF:2
FNH:2
DA:11,9
DA:12,9
DA:13,1
DA:14,1
DA:15,1
DA:17,1
DA:18,10
DA:20,9
DA:21,1
DA:22,1
DA:23,1
DA:25,1
DA:27,1
DA:29,1
DA:30,10
DA:32,9
DA:33,1
DA:34,1
DA:35,1
DA:37,1
DA:39,1
DA:41,1
DA:42,10
DA:44,9
DA:45,1
DA:46,1
DA:47,1
DA:49,1
DA:51,1
DA:52,10
DA:54,9
DA:55,3
DA:57,3
DA:59,3
DA:61,3
DA:63,9
DA:65,9
DA:66,1
DA:67,1
DA:68,1
DA:70,1
DA:71,10
DA:73,9
DA:74,1
DA:75,1
DA:76,1
DA:78,1
DA:80,1
DA:81,10
DA:83,9
DA:84,1
DA:85,1
DA:86,1
DA:88,1
DA:90,1
DA:91,10
DA:93,9
DA:94,1
DA:95,1
DA:96,1
DA:98,1
DA:99,10
DA:100,9
DA:102,6
DA:103,6
DA:105,3
DA:106,3
DA:107,3
DA:109,3
DA:110,3
DA:112,3
DA:113,3
DA:114,3
DA:115,1
DA:117,3
DA:118,3
DA:119,1
DA:121,1
DA:123,1
DA:125,1
DA:127,3
DA:128,3
DA:129,1
DA:131,3
DA:132,3
DA:133,9
DA:135,6
DA:136,3
DA:137,3
DA:139,3
DA:140,3
DA:141,3
DA:142,1
DA:144,3
DA:145,3
DA:146,1
DA:148,3
DA:149,3
DA:150,1
DA:152,3
DA:153,3
DA:154,9
DA:155,6
LF:103
LH:103
end_of_record
TN:
SF:/home/gius/git/llama-cli/src/command/commands_it.cpp
FN:107,123,_ZL20DOCTEST_ANON_FUNC_50v
FN:109,109,_ZZL20DOCTEST_ANON_FUNC_50vENKUlRKSt6vectorI7MessageSaIS0_EEE_clES4_
FN:12,34,_ZL20DOCTEST_ANON_FUNC_27v
FN:125,141,_ZL20DOCTEST_ANON_FUNC_55v
FN:127,127,_ZZL20DOCTEST_ANON_FUNC_55vENKUlRKSt6vectorI7MessageSaIS0_EEE_clES4_
FN:14,14,_ZZL20DOCTEST_ANON_FUNC_27vENKUlRKSt6vectorI7MessageSaIS0_EEE_clES4_
FN:36,52,_ZL20DOCTEST_ANON_FUNC_33v
FN:38,38,_ZZL20DOCTEST_ANON_FUNC_33vENKUlRKSt6vectorI7MessageSaIS0_EEE_clES4_
FN:54,91,_ZL20DOCTEST_ANON_FUNC_38v
FN:56,56,_ZZL20DOCTEST_ANON_FUNC_38vENKUlRKSt6vectorI7MessageSaIS0_EEE_clES4_
FN:93,105,_ZL20DOCTEST_ANON_FUNC_46v
FN:95,95,_ZZL20DOCTEST_ANON_FUNC_46vENKUlRKSt6vectorI7MessageSaIS0_EEE_clES4_
FNDA:2,_ZL20DOCTEST_ANON_FUNC_50v
FNDA:0,_ZZL20DOCTEST_ANON_FUNC_50vENKUlRKSt6vectorI7MessageSaIS0_EEE_clES4_
FNDA:3,_ZL20DOCTEST_ANON_FUNC_27v
FNDA:2,_ZL20DOCTEST_ANON_FUNC_55v
FNDA:0,_ZZL20DOCTEST_ANON_FUNC_55vENKUlRKSt6vectorI7MessageSaIS0_EEE_clES4_
FNDA:0,_ZZL20DOCTEST_ANON_FUNC_27vENKUlRKSt6vectorI7MessageSaIS0_EEE_clES4_
FNDA:2,_ZL20DOCTEST_ANON_FUNC_33v
FNDA:0,_ZZL20DOCTEST_ANON_FUNC_33vENKUlRKSt6vectorI7MessageSaIS0_EEE_clES4_
FNDA:4,_ZL20DOCTEST_ANON_FUNC_38v
FNDA:2,_ZZL20DOCTEST_ANON_FUNC_38vENKUlRKSt6vectorI7MessageSaIS0_EEE_clES4_
FNDA:1,_ZL20DOCTEST_ANON_FUNC_46v
FNDA:1,_ZZL20DOCTEST_ANON_FUNC_46vENKUlRKSt6vectorI7MessageSaIS0_EEE_clES4_
FNF:12
FNH:8
DA:12,3
DA:13,3
DA:14,3
DA:15,3
DA:16,3
DA:17,3
DA:18,3
DA:19,3
DA:20,1
DA:22,3
DA:23,3
DA:24,1
DA:26,1
DA:28,3
DA:29,3
DA:30,1
DA:32,3
DA:33,3
DA:34,3
DA:36,2
DA:37,2
DA:38,2
DA:39,2
DA:40,2
DA:41,2
DA:42,2
DA:43,2
DA:44,1
DA:46,2
DA:47,2
DA:48,1
DA:50,2
DA:51,2
DA:52,2
DA:54,4
DA:55,4
DA:56,2
DA:58,4
DA:59,2
DA:60,2
DA:61,2
DA:62,2
DA:63,1
DA:65,2
DA:66,2
DA:67,1
DA:69,2
DA:70,6
DA:72,4
DA:73,2
DA:74,2
DA:75,2
DA:76,2
DA:77,1
DA:79,2
DA:80,2
DA:81,1
DA:82,3
DA:83,2
DA:84,1
DA:87,1
DA:89,2
DA:90,6
DA:91,4
DA:93,1
DA:94,1
DA:95,2
DA:96,1
DA:97,1
DA:98,1
DA:99,1
DA:100,1
DA:101,1
DA:103,1
DA:104,1
DA:105,1
DA:107,2
DA:108,2
DA:109,2
DA:110,2
DA:111,2
DA:112,2
DA:113,2
DA:114,2
DA:115,1
DA:117,2
DA:118,2
DA:119,1
DA:121,2
DA:122,2
DA:123,2
DA:125,2
DA:126,2
DA:127,2
DA:128,2
DA:129,2
DA:130,2
DA:131,2
DA:132,2
DA:133,1
DA:135,2
DA:136,2
DA:137,1
DA:139,2
DA:140,2
DA:141,2
LF:106
LH:106
end_of_record
TN:
SF:/home/gius/git/llama-cli/src/config/config.cpp
FN:106,138,_ZL15validate_configRK6Config
FN:144,187,_Z8load_envRK6Config
FN:18,24,_ZL7env_getPKcRNSt7__cxx1112basic_stringIcSt11char_traitsIcESaIcEEE
FN:234,240,_ZL10match_longRKNSt7__cxx1112basic_stringIcSt11char_traitsIcESaIcEEEPKc
FN:244,256,_ZL17match_string_optsRKNSt7__cxx1112basic_stringIcSt11char_traitsIcESaIcEEERiiPKPKcR6Config
FN:260,272,_ZL14match_int_optsRKNSt7__cxx1112basic_stringIcSt11char_traitsIcESaIcEEERiiPKPKcR6Config
FN:276,278,_ZL10match_optsRKNSt7__cxx1112basic_stringIcSt11char_traitsIcESaIcEEERiiPKPKcR6Config
FN:281,290,_ZL15get_files_valueRKNSt7__cxx1112basic_stringIcSt11char_traitsIcESaIcEEERiiPKPKc
FN:293,314,_ZL16parse_files_flagRKNSt7__cxx1112basic_stringIcSt11char_traitsIcESaIcEEERiiPKPKcR6Config
FN:318,350,_Z8load_cliiPKPKcRK6Config
FN:32,103,_Z11load_dotenvRKNSt7__cxx1112basic_stringIcSt11char_traitsIcESaIcEEER6Config
FN:354,361,_Z11load_configiPKPKc
FN:370,391,_Z17print_default_envv
FNDA:2,_ZL15validate_configRK6Config
FNDA:7,_Z8load_envRK6Config
FNDA:56,_ZL7env_getPKcRNSt7__cxx1112basic_stringIcSt11char_traitsIcESaIcEEE
FNDA:73,_ZL10match_longRKNSt7__cxx1112basic_stringIcSt11char_traitsIcESaIcEEEPKc
FNDA:16,_ZL17match_string_optsRKNSt7__cxx1112basic_stringIcSt11char_traitsIcESaIcEEERiiPKPKcR6Config
FNDA:6,_ZL14match_int_optsRKNSt7__cxx1112basic_stringIcSt11char_traitsIcESaIcEEERiiPKPKcR6Config
FNDA:16,_ZL10match_optsRKNSt7__cxx1112basic_stringIcSt11char_traitsIcESaIcEEERiiPKPKcR6Config
FNDA:3,_ZL15get_files_valueRKNSt7__cxx1112basic_stringIcSt11char_traitsIcESaIcEEERiiPKPKc
FNDA:3,_ZL16parse_files_flagRKNSt7__cxx1112basic_stringIcSt11char_traitsIcESaIcEEERiiPKPKcR6Config
FNDA:9,_Z8load_cliiPKPKcRK6Config
FNDA:12,_Z11load_dotenvRKNSt7__cxx1112basic_stringIcSt11char_traitsIcESaIcEEER6Config
FNDA:2,_Z11load_configiPKPKc
FNDA:1,_Z17print_default_envv
FNF:13
FNH:13
DA:18,56
DA:19,56
DA:20,56
DA:21,12
DA:23,56
DA:32,12
DA:33,12
DA:34,12
DA:35,1
DA:37,11
DA:38,64
DA:39,53
DA:40,38
DA:42,15
DA:43,15
DA:44,0
DA:46,15
DA:47,15
DA:50,15
DA:51,15
DA:52,187
DA:53,177
DA:54,3
DA:55,3
DA:56,174
DA:57,3
DA:58,171
DA:59,5
DA:60,5
DA:65,15
DA:66,3
DA:69,24
DA:70,9
DA:72,15
DA:75,8
DA:76,8
DA:77,1
DA:78,1
DA:80,7
DA:82,7
DA:83,1
DA:84,6
DA:85,5
DA:86,1
DA:87,0
DA:88,1
DA:89,0
DA:90,1
DA:91,0
DA:92,1
DA:93,1
DA:94,0
DA:95,0
DA:96,0
DA:97,0
DA:98,0
DA:100,0
DA:102,15
DA:103,12
DA:106,2
DA:107,2
DA:108,2
DA:109,0
DA:110,0
DA:112,2
DA:113,0
DA:114,0
DA:116,2
DA:117,0
DA:118,0
DA:120,2
DA:121,0
DA:122,0
DA:125,2
DA:126,2
DA:127,0
DA:128,0
DA:130,0
DA:131,0
DA:132,0
DA:133,0
DA:135,2
DA:136,0
DA:138,2
DA:144,7
DA:145,7
DA:146,7
DA:147,7
DA:148,0
DA:150,7
DA:153,5
DA:154,5
DA:155,1
DA:156,1
DA:158,4
DA:161,7
DA:162,1
DA:164,7
DA:165,3
DA:167,7
DA:168,1
DA:170,7
DA:171,1
DA:173,7
DA:174,1
DA:176,7
DA:177,0
DA:179,7
DA:180,0
DA:182,7
DA:184,0
DA:186,14
DA:187,7
DA:234,73
DA:235,73
DA:236,73
DA:237,9
DA:239,128
DA:240,73
DA:244,16
DA:245,61
DA:246,55
DA:247,55
DA:248,3
DA:250,55
DA:251,10
DA:252,10
DA:254,55
DA:255,6
DA:260,6
DA:261,18
DA:262,15
DA:263,15
DA:264,1
DA:266,15
DA:267,3
DA:268,3
DA:270,15
DA:271,3
DA:276,16
DA:277,16
DA:281,3
DA:282,3
DA:283,3
DA:284,0
DA:286,3
DA:287,0
DA:289,6
DA:290,3
DA:293,3
DA:294,3
DA:295,3
DA:297,0
DA:298,0
DA:300,3
DA:301,3
DA:305,0
DA:306,0
DA:307,0
DA:308,0
DA:311,0
DA:312,0
DA:314,3
DA:318,9
DA:319,9
DA:321,25
DA:322,16
DA:323,16
DA:324,13
DA:326,3
DA:327,0
DA:328,0
DA:330,3
DA:331,0
DA:332,0
DA:334,3
DA:335,0
DA:336,0
DA:340,3
DA:344,3
DA:345,2
DA:346,2
DA:348,16
DA:349,9
DA:350,0
DA:354,2
DA:355,2
DA:356,2
DA:357,2
DA:358,2
DA:359,2
DA:360,2
DA:361,14
DA:370,1
DA:371,1
DA:373,1
DA:374,1
DA:375,1
DA:376,0
DA:385,1
DA:386,1
DA:387,1
DA:390,1
DA:391,1
LF:204
LH:157
end_of_record
TN:
SF:/home/gius/git/llama-cli/src/config/config.h
FN:31,34,_ZN6Config8instanceEv
FNDA:65,_ZN6Config8instanceEv
FNF:1
FNH:1
DA:31,65
DA:32,65
DA:33,65
LF:3
LH:3
end_of_record
TN:
SF:/home/gius/git/llama-cli/src/config/config_it.cpp
FN:10,10,_ZN21DOCTEST_ANON_SUITE_2728doctest_detail_test_suite_nsL19getCurrentTestSuiteEv
FN:11,22,_ZN21DOCTEST_ANON_SUITE_27L20DOCTEST_ANON_FUNC_28Ev
FN:24,37,_ZN21DOCTEST_ANON_SUITE_27L20DOCTEST_ANON_FUNC_30Ev
FN:39,50,_ZN21DOCTEST_ANON_SUITE_27L20DOCTEST_ANON_FUNC_32Ev
FN:52,65,_ZN21DOCTEST_ANON_SUITE_27L20DOCTEST_ANON_FUNC_34Ev
FN:67,76,_ZN21DOCTEST_ANON_SUITE_27L20DOCTEST_ANON_FUNC_36Ev
FN:78,89,_ZN21DOCTEST_ANON_SUITE_27L20DOCTEST_ANON_FUNC_38Ev
FNDA:6,_ZN21DOCTEST_ANON_SUITE_2728doctest_detail_test_suite_nsL19getCurrentTestSuiteEv
FNDA:1,_ZN21DOCTEST_ANON_SUITE_27L20DOCTEST_ANON_FUNC_28Ev
FNDA:1,_ZN21DOCTEST_ANON_SUITE_27L20DOCTEST_ANON_FUNC_30Ev
FNDA:1,_ZN21DOCTEST_ANON_SUITE_27L20DOCTEST_ANON_FUNC_32Ev
FNDA:1,_ZN21DOCTEST_ANON_SUITE_27L20DOCTEST_ANON_FUNC_34Ev
FNDA:1,_ZN21DOCTEST_ANON_SUITE_27L20DOCTEST_ANON_FUNC_36Ev
FNDA:1,_ZN21DOCTEST_ANON_SUITE_27L20DOCTEST_ANON_FUNC_38Ev
FNF:7
FNH:7
DA:10,6
DA:11,1
DA:12,1
DA:13,1
DA:14,1
DA:16,1
DA:18,1
DA:20,1
DA:22,8
DA:24,1
DA:25,1
DA:26,1
DA:27,1
DA:29,1
DA:31,1
DA:33,1
DA:35,1
DA:37,8
DA:39,1
DA:40,1
DA:41,1
DA:42,1
DA:44,1
DA:46,1
DA:48,1
DA:50,8
DA:52,1
DA:53,1
DA:54,1
DA:55,1
DA:57,1
DA:59,1
DA:61,1
DA:63,1
DA:65,8
DA:67,1
DA:68,1
DA:69,1
DA:70,1
DA:72,1
DA:74,1
DA:76,8
DA:78,1
DA:79,1
DA:80,1
DA:81,1
DA:83,1
DA:85,1
DA:87,1
DA:89,8
LF:50
LH:50
end_of_record
TN:
SF:/home/gius/git/llama-cli/src/config/config_test.cpp
FN:112,225,_ZL20DOCTEST_ANON_FUNC_42v
FN:14,21,_ZL9clean_envv
FN:227,247,_ZL20DOCTEST_ANON_FUNC_68v
FN:249,379,_ZL20DOCTEST_ANON_FUNC_74v
FN:28,31,_ZN10TmpEnvFileC2ERKNSt7__cxx1112basic_stringIcSt11char_traitsIcESaIcEEES7_
FN:32,32,_ZN10TmpEnvFileD2Ev
FN:35,57,_ZL20DOCTEST_ANON_FUNC_27v
FN:381,408,_ZL20DOCTEST_ANON_FUNC_96v
FN:59,110,_ZL20DOCTEST_ANON_FUNC_31v
FNDA:8,_ZL20DOCTEST_ANON_FUNC_42v
FNDA:31,_ZL9clean_envv
FNDA:2,_ZL20DOCTEST_ANON_FUNC_68v
FNDA:10,_ZL20DOCTEST_ANON_FUNC_74v
FNDA:9,_ZN10TmpEnvFileC2ERKNSt7__cxx1112basic_stringIcSt11char_traitsIcESaIcEEES7_
FNDA:9,_ZN10TmpEnvFileD2Ev
FNDA:1,_ZL20DOCTEST_ANON_FUNC_27v
FNDA:1,_ZL20DOCTEST_ANON_FUNC_96v
FNDA:3,_ZL20DOCTEST_ANON_FUNC_31v
FNF:9
FNH:9
DA:14,31
DA:15,31
DA:16,31
DA:17,31
DA:18,31
DA:19,31
DA:20,31
DA:21,31
DA:28,9
DA:29,9
DA:30,9
DA:31,9
DA:32,9
DA:35,1
DA:36,1
DA:37,1
DA:38,1
DA:39,1
DA:41,1
DA:43,1
DA:45,1
DA:47,1
DA:49,1
DA:51,1
DA:53,1
DA:55,1
DA:56,2
DA:57,1
DA:59,3
DA:60,3
DA:61,1
DA:62,1
DA:63,1
DA:64,1
DA:65,1
DA:67,1
DA:68,1
DA:69,1
DA:70,1
DA:72,1
DA:74,1
DA:76,1
DA:78,1
DA:79,2
DA:80,1
DA:81,3
DA:83,3
DA:84,1
DA:85,1
DA:86,1
DA:87,1
DA:88,1
DA:90,1
DA:92,1
DA:93,2
DA:94,3
DA:96,3
DA:97,1
DA:98,1
DA:99,1
DA:100,1
DA:101,1
DA:102,1
DA:104,1
DA:106,1
DA:107,2
DA:108,1
DA:109,3
DA:110,24
DA:112,8
DA:113,8
DA:114,1
DA:115,1
DA:116,1
DA:117,1
DA:118,1
DA:120,1
DA:122,1
DA:124,1
DA:125,2
DA:126,8
DA:128,8
DA:129,1
DA:130,1
DA:131,1
DA:132,1
DA:133,1
DA:135,1
DA:137,1
DA:139,1
DA:141,1
DA:142,2
DA:143,8
DA:145,8
DA:146,1
DA:147,1
DA:148,1
DA:149,1
DA:150,1
DA:152,1
DA:154,1
DA:155,2
DA:156,8
DA:158,8
DA:159,1
DA:160,1
DA:161,1
DA:162,1
DA:163,1
DA:165,1
DA:167,1
DA:168,2
DA:169,8
DA:171,8
DA:172,1
DA:173,1
DA:174,1
DA:175,1
DA:176,1
DA:178,1
DA:180,1
DA:182,1
DA:183,2
DA:184,8
DA:186,8
DA:187,1
DA:188,1
DA:189,1
DA:190,1
DA:191,1
DA:193,1
DA:194,2
DA:195,8
DA:197,8
DA:198,1
DA:199,1
DA:200,1
DA:201,1
DA:202,1
DA:204,1
DA:206,1
DA:207,2
DA:208,8
DA:210,8
DA:211,1
DA:212,1
DA:213,1
DA:214,1
DA:215,1
DA:216,1
DA:217,1
DA:219,1
DA:221,1
DA:222,2
DA:223,1
DA:224,8
DA:225,64
DA:227,2
DA:228,2
DA:229,2
DA:230,2
DA:231,2
DA:233,2
DA:234,2
DA:235,2
DA:236,2
DA:237,1
DA:239,2
DA:240,2
DA:241,1
DA:243,2
DA:244,4
DA:245,2
DA:246,2
DA:247,2
DA:249,10
DA:250,10
DA:251,1
DA:252,3
DA:253,1
DA:254,1
DA:255,1
DA:256,1
DA:258,1
DA:260,1
DA:261,1
DA:262,11
DA:264,10
DA:265,1
DA:266,3
DA:267,1
DA:268,1
DA:269,1
DA:270,1
DA:272,1
DA:273,1
DA:274,11
DA:276,10
DA:277,1
DA:278,3
DA:279,1
DA:280,1
DA:281,1
DA:282,1
DA:284,1
DA:286,1
DA:287,1
DA:288,11
DA:290,10
DA:291,1
DA:292,1
DA:293,3
DA:294,1
DA:295,1
DA:296,1
DA:297,1
DA:299,1
DA:300,1
DA:301,11
DA:303,10
DA:304,1
DA:305,1
DA:306,1
DA:307,1
DA:308,1
DA:310,1
DA:311,1
DA:312,11
DA:314,10
DA:315,1
DA:316,3
DA:317,1
DA:318,1
DA:319,1
DA:320,1
DA:322,1
DA:324,1
DA:325,1
DA:326,11
DA:328,10
DA:329,1
DA:330,3
DA:331,1
DA:332,1
DA:333,1
DA:334,1
DA:336,1
DA:338,1
DA:339,1
DA:340,11
DA:342,10
DA:343,1
DA:344,3
DA:345,1
DA:346,1
DA:347,1
DA:348,1
DA:350,1
DA:351,1
DA:352,11
DA:354,10
DA:355,1
DA:356,3
DA:357,1
DA:358,1
DA:359,1
DA:360,1
DA:362,1
DA:363,1
DA:364,11
DA:366,10
DA:367,1
DA:368,3
DA:369,1
DA:370,1
DA:371,1
DA:372,1
DA:374,1
DA:376,1
DA:377,1
DA:378,11
DA:379,17
DA:381,1
DA:382,1
DA:383,1
DA:384,1
DA:385,1
DA:386,1
DA:387,1
DA:388,1
DA:390,1
DA:391,1
DA:393,1
DA:395,1
DA:397,1
DA:399,1
DA:401,1
DA:403,1
DA:405,1
DA:406,2
DA:407,1
DA:408,1
LF:302
LH:302
end_of_record
TN:
SF:/home/gius/git/llama-cli/src/config/config_test_helper.cpp
FN:100,103,_Z11load_configiPKPKc
FN:15,22,_Z7env_getPKcRNSt7__cxx1112basic_stringIcSt11char_traitsIcESaIcEEE
FN:24,40,_Z8load_envRK6Config
FN:43,49,_Z10match_longRKNSt7__cxx1112basic_stringIcSt11char_traitsIcESaIcEEEPKc
FN:52,98,_Z8load_cliiPKPKcRK6Config
FNDA:0,_Z11load_configiPKPKc
FNDA:0,_Z7env_getPKcRNSt7__cxx1112basic_stringIcSt11char_traitsIcESaIcEEE
FNDA:0,_Z8load_envRK6Config
FNDA:23,_Z10match_longRKNSt7__cxx1112basic_stringIcSt11char_traitsIcESaIcEEEPKc
FNDA:6,_Z8load_cliiPKPKcRK6Config
FNF:5
FNH:2
DA:15,0
DA:16,0
DA:17,0
DA:18,0
DA:20,0
DA:21,0
DA:24,0
DA:25,0
DA:26,0
DA:27,0
DA:28,0
DA:30,0
DA:31,0
DA:33,0
DA:34,0
DA:36,0
DA:37,0
DA:39,0
DA:40,0
DA:43,23
DA:44,23
DA:45,23
DA:46,5
DA:48,36
DA:49,23
DA:52,6
DA:53,6
DA:54,18
DA:55,12
DA:58,12
DA:59,12
DA:60,1
DA:61,1
DA:65,11
DA:66,11
DA:67,6
DA:68,2
DA:70,6
DA:71,6
DA:72,6
DA:73,13
DA:74,7
DA:76,6
DA:78,7
DA:79,6
DA:81,6
DA:82,5
DA:84,1
DA:85,1
DA:86,6
DA:87,6
DA:88,6
DA:89,6
DA:92,5
DA:93,5
DA:94,5
DA:96,25
DA:97,6
DA:98,0
DA:100,0
DA:101,0
DA:102,0
DA:103,0
LF:63
LH:39
end_of_record
TN:
SF:/home/gius/git/llama-cli/src/exec/exec.cpp
FN:18,26,_ZL13append_outputRNSt7__cxx1112basic_stringIcSt11char_traitsIcESaIcEEEPKci
FN:31,65,_Z8cmd_execRKNSt7__cxx1112basic_stringIcSt11char_traitsIcESaIcEEEii
FNDA:58,_ZL13append_outputRNSt7__cxx1112basic_stringIcSt11char_traitsIcESaIcEEEPKci
FNDA:21,_Z8cmd_execRKNSt7__cxx1112basic_stringIcSt11char_traitsIcESaIcEEEii
FNF:2
FNH:2
DA:18,58
DA:19,58
DA:20,58
DA:21,2
DA:22,2
DA:23,2
DA:25,56
DA:31,21
DA:32,42
DA:34,21
DA:36,21
DA:37,21
DA:38,0
DA:39,0
DA:43,21
DA:45,21
DA:46,2060
DA:48,2020
DA:49,2
DA:50,2
DA:52,2018
DA:53,58
DA:57,21
DA:58,21
DA:59,2
DA:60,2
DA:62,19
DA:64,21
DA:65,21
LF:29
LH:27
end_of_record
TN:
SF:/home/gius/git/llama-cli/src/exec/exec_test.cpp
FN:8,65,_ZL20DOCTEST_ANON_FUNC_27v
FNDA:9,_ZL20DOCTEST_ANON_FUNC_27v
FNF:1
FNH:1
DA:8,9
DA:9,9
DA:10,3
DA:11,3
DA:12,1
DA:14,3
DA:15,3
DA:16,1
DA:18,3
DA:19,3
DA:20,1
DA:22,3
DA:23,12
DA:25,9
DA:26,1
DA:27,1
DA:28,1
DA:30,1
DA:31,10
DA:33,9
DA:34,1
DA:35,1
DA:36,1
DA:38,1
DA:39,10
DA:41,9
DA:42,2
DA:43,2
DA:44,1
DA:46,2
DA:47,2
DA:48,1
DA:50,2
DA:51,11
DA:53,9
DA:55,2
DA:56,2
DA:57,1
DA:59,2
DA:60,2
DA:61,1
DA:63,2
DA:64,11
DA:65,9
LF:44
LH:44
end_of_record
TN:
SF:/home/gius/git/llama-cli/src/json/json.cpp
FN:119,139,_Z16json_extract_intRKNSt7__cxx1112basic_stringIcSt11char_traitsIcESaIcEEES6_
FN:12,37,_ZL13decode_escapeRKNSt7__cxx1112basic_stringIcSt11char_traitsIcESaIcEEEmRS4_
FN:40,40,_ZL12is_end_quoteRKNSt7__cxx1112basic_stringIcSt11char_traitsIcESaIcEEEm
FN:44,67,_Z19json_extract_stringRKNSt7__cxx1112basic_stringIcSt11char_traitsIcESaIcEEES6_
FN:77,113,_Z19json_extract_objectRKNSt7__cxx1112basic_stringIcSt11char_traitsIcESaIcEEES6_
FNDA:0,_Z16json_extract_intRKNSt7__cxx1112basic_stringIcSt11char_traitsIcESaIcEEES6_
FNDA:7,_ZL13decode_escapeRKNSt7__cxx1112basic_stringIcSt11char_traitsIcESaIcEEEmRS4_
FNDA:68,_ZL12is_end_quoteRKNSt7__cxx1112basic_stringIcSt11char_traitsIcESaIcEEEm
FNDA:6,_Z19json_extract_stringRKNSt7__cxx1112basic_stringIcSt11char_traitsIcESaIcEEES6_
FNDA:4,_Z19json_extract_objectRKNSt7__cxx1112basic_stringIcSt11char_traitsIcESaIcEEES6_
FNF:5
FNH:4
DA:12,7
DA:13,7
DA:14,0
DA:16,7
DA:17,7
DA:18,1
DA:19,1
DA:21,6
DA:22,2
DA:23,2
DA:25,4
DA:26,0
DA:27,0
DA:29,4
DA:30,4
DA:31,4
DA:32,4
DA:34,4
DA:36,0
DA:40,68
DA:44,6
DA:45,6
DA:46,6
DA:47,6
DA:48,2
DA:51,5
DA:52,5
DA:53,68
DA:54,68
DA:55,5
DA:57,63
DA:58,7
DA:59,7
DA:60,7
DA:61,7
DA:64,56
DA:66,5
DA:67,6
DA:77,4
DA:79,4
DA:80,4
DA:81,4
DA:82,2
DA:84,3
DA:86,3
DA:87,3
DA:88,3
DA:89,91
DA:90,91
DA:91,91
DA:92,72
DA:93,2
DA:94,70
DA:95,2
DA:96,68
DA:97,8
DA:99,72
DA:101,19
DA:102,8
DA:103,11
DA:104,3
DA:105,8
DA:106,3
DA:107,3
DA:108,3
DA:112,0
DA:113,4
DA:119,0
DA:121,0
DA:122,0
DA:123,0
DA:124,0
DA:126,0
DA:128,0
DA:129,0
DA:131,0
DA:132,0
DA:133,0
DA:134,0
DA:136,0
DA:138,0
DA:139,0
LF:82
LH:62
end_of_record
TN:
SF:/home/gius/git/llama-cli/src/json/json_test.cpp
FN:64,111,_ZL20DOCTEST_ANON_FUNC_45v
FN:9,62,_ZL20DOCTEST_ANON_FUNC_27v
FNDA:4,_ZL20DOCTEST_ANON_FUNC_45v
FNDA:6,_ZL20DOCTEST_ANON_FUNC_27v
FNF:2
FNH:2
DA:9,6
DA:10,6
DA:11,2
DA:12,2
DA:13,1
DA:14,3
DA:16,1
DA:17,2
DA:18,2
DA:19,1
DA:20,3
DA:22,1
DA:23,2
DA:24,8
DA:26,6
DA:27,2
DA:28,1
DA:29,1
DA:30,3
DA:32,1
DA:33,3
DA:34,2
DA:35,1
DA:36,1
DA:37,3
DA:39,1
DA:40,3
DA:41,6
DA:43,6
DA:44,1
DA:45,1
DA:46,1
DA:47,3
DA:49,1
DA:50,2
DA:51,6
DA:53,6
DA:54,1
DA:55,1
DA:56,1
DA:57,3
DA:59,1
DA:60,1
DA:61,7
DA:62,6
DA:64,4
DA:65,4
DA:66,1
DA:67,1
DA:68,1
DA:69,1
DA:70,1
DA:72,1
DA:74,1
DA:76,1
DA:77,2
DA:78,5
DA:80,4
DA:81,1
DA:82,1
DA:83,1
DA:84,1
DA:85,1
DA:87,1
DA:88,2
DA:89,5
DA:91,4
DA:92,1
DA:93,1
DA:94,1
DA:95,1
DA:96,1
DA:98,1
DA:99,2
DA:100,5
DA:102,4
DA:103,1
DA:104,1
DA:105,1
DA:106,3
DA:108,1
DA:109,1
DA:110,5
DA:111,4
LF:84
LH:84
end_of_record
TN:
SF:/home/gius/git/llama-cli/src/logging/logger.cpp
FN:19,26,_ZN6LoggerC2Ev
FN:28,31,_ZN6Logger8instanceEv
FN:33,33,_ZNK6Logger4pathB5cxx11Ev
FN:35,96,_ZN6Logger3logERK5Event
FN:46,82,_ZZN6Logger3logERK5EventENKUlRKNSt7__cxx1112basic_stringIcSt11char_traitsIcESaIcEEEE_clESA_
FNDA:1,_ZN6LoggerC2Ev
FNDA:3,_ZN6Logger8instanceEv
FNDA:4,_ZNK6Logger4pathB5cxx11Ev
FNDA:2,_ZN6Logger3logERK5Event
FNDA:8,_ZZN6Logger3logERK5EventENKUlRKNSt7__cxx1112basic_stringIcSt11char_traitsIcESaIcEEEE_clESA_
FNF:5
FNH:5
DA:19,1
DA:20,1
DA:21,1
DA:24,1
DA:25,1
DA:26,1
DA:28,3
DA:29,3
DA:30,3
DA:33,4
DA:35,2
DA:37,2
DA:38,2
DA:39,2
DA:41,2
DA:42,2
DA:43,2
DA:46,8
DA:47,8
DA:48,72
DA:49,64
DA:50,1
DA:51,1
DA:52,1
DA:53,1
DA:54,1
DA:55,1
DA:56,0
DA:57,0
DA:58,0
DA:59,0
DA:60,0
DA:61,0
DA:62,1
DA:63,1
DA:64,1
DA:65,0
DA:66,0
DA:67,0
DA:68,1
DA:69,1
DA:70,1
DA:71,60
DA:72,60
DA:74,0
DA:75,0
DA:77,60
DA:81,8
DA:82,0
DA:85,2
DA:86,2
DA:87,2
DA:88,2
DA:89,2
DA:90,2
DA:91,2
DA:92,2
DA:93,2
DA:94,2
DA:96,2
LF:60
LH:48
end_of_record
TN:
SF:/home/gius/git/llama-cli/src/logging/logger_test.cpp
FN:14,73,_ZL20DOCTEST_ANON_FUNC_27v
FNDA:3,_ZL20DOCTEST_ANON_FUNC_27v
FNF:1
FNH:1
DA:14,3
DA:15,3
DA:16,3
DA:17,3
DA:18,1
DA:20,1
DA:22,3
DA:23,3
DA:24,1
DA:25,1
DA:26,1
DA:27,1
DA:28,1
DA:29,1
DA:30,1
DA:31,1
DA:32,1
DA:33,1
DA:34,1
DA:35,1
DA:36,1
DA:37,75
DA:38,74
DA:40,1
DA:42,1
DA:44,1
DA:46,2
DA:47,4
DA:48,3
DA:49,1
DA:50,1
DA:51,1
DA:52,1
DA:53,1
DA:54,1
DA:55,1
DA:56,1
DA:57,1
DA:58,1
DA:59,76
DA:60,75
DA:62,1
DA:64,1
DA:66,1
DA:68,1
DA:70,2
DA:71,4
DA:72,3
DA:73,3
LF:49
LH:49
end_of_record
TN:
SF:/home/gius/git/llama-cli/src/ollama/ollama.cpp
FN:127,137,_ZL19build_messages_jsonRKSt6vectorI7MessageSaIS0_EE
FN:147,194,_Z11ollama_chatB5cxx11RK6ConfigRKSt6vectorI7MessageSaIS3_EE
FN:199,223,_Z20get_available_modelsB5cxx11RK6Config
FN:23,28,_ZL11make_clientRK6Config
FN:33,69,_ZL18escape_json_stringRKNSt7__cxx1112basic_stringIcSt11char_traitsIcESaIcEEE
FN:78,123,_Z15ollama_generateRK6ConfigRKNSt7__cxx1112basic_stringIcSt11char_traitsIcESaIcEEE
FNDA:0,_ZL19build_messages_jsonRKSt6vectorI7MessageSaIS0_EE
FNDA:0,_Z11ollama_chatB5cxx11RK6ConfigRKSt6vectorI7MessageSaIS3_EE
FNDA:3,_Z20get_available_modelsB5cxx11RK6Config
FNDA:3,_ZL11make_clientRK6Config
FNDA:0,_ZL18escape_json_stringRKNSt7__cxx1112basic_stringIcSt11char_traitsIcESaIcEEE
FNDA:0,_Z15ollama_generateRK6ConfigRKNSt7__cxx1112basic_stringIcSt11char_traitsIcESaIcEEE
FNF:6
FNH:2
DA:23,3
DA:24,3
DA:25,3
DA:26,3
DA:27,6
DA:28,3
DA:33,0
DA:34,0
DA:35,0
DA:36,0
DA:37,0
DA:38,0
DA:39,0
DA:40,0
DA:41,0
DA:42,0
DA:43,0
DA:44,0
DA:45,0
DA:46,0
DA:47,0
DA:48,0
DA:49,0
DA:50,0
DA:51,0
DA:52,0
DA:53,0
DA:54,0
DA:55,0
DA:56,0
DA:57,0
DA:58,0
DA:59,0
DA:61,0
DA:62,0
DA:64,0
DA:68,0
DA:69,0
DA:78,0
DA:79,0
DA:80,0
DA:81,0
DA:82,0
DA:84,0
DA:86,0
DA:87,0
DA:90,0
DA:91,0
DA:92,0
DA:95,0
DA:96,0
DA:97,0
DA:98,0
DA:102,0
DA:103,0
DA:104,0
DA:105,0
DA:107,0
DA:108,0
DA:109,0
DA:110,0
DA:112,0
DA:113,0
DA:114,0
DA:117,0
DA:118,0
DA:121,0
DA:122,0
DA:123,0
DA:127,0
DA:128,0
DA:129,0
DA:130,0
DA:131,0
DA:133,0
DA:135,0
DA:136,0
DA:137,0
DA:147,0
DA:148,0
DA:149,0
DA:150,0
DA:152,0
DA:154,0
DA:155,0
DA:158,0
DA:159,0
DA:160,0
DA:163,0
DA:164,0
DA:165,0
DA:166,0
DA:170,0
DA:171,0
DA:172,0
DA:173,0
DA:175,0
DA:176,0
DA:177,0
DA:178,0
DA:181,0
DA:182,0
DA:183,0
DA:184,0
DA:187,0
DA:188,0
DA:192,0
DA:193,0
DA:194,0
DA:199,3
DA:200,3
DA:201,3
DA:204,3
DA:205,3
DA:206,0
DA:211,3
DA:212,3
DA:213,6
DA:214,0
DA:215,0
DA:216,0
DA:217,0
DA:218,0
DA:222,3
DA:223,3
LF:125
LH:16
end_of_record
TN:
SF:/home/gius/git/llama-cli/src/repl/conversation_it.cpp
FN:12,36,_ZL20DOCTEST_ANON_FUNC_27v
FN:15,15,_ZZL20DOCTEST_ANON_FUNC_27vENKUlRKSt6vectorI7MessageSaIS0_EEE_clES4_
FN:38,58,_ZL20DOCTEST_ANON_FUNC_34v
FN:41,41,_ZZL20DOCTEST_ANON_FUNC_34vENKUlRKSt6vectorI7MessageSaIS0_EEE_clES4_
FN:60,76,_ZL20DOCTEST_ANON_FUNC_39v
FN:63,63,_ZZL20DOCTEST_ANON_FUNC_39vENKUlRKSt6vectorI7MessageSaIS0_EEE_clES4_
FNDA:3,_ZL20DOCTEST_ANON_FUNC_27v
FNDA:6,_ZZL20DOCTEST_ANON_FUNC_27vENKUlRKSt6vectorI7MessageSaIS0_EEE_clES4_
FNDA:1,_ZL20DOCTEST_ANON_FUNC_34v
FNDA:1,_ZZL20DOCTEST_ANON_FUNC_34vENKUlRKSt6vectorI7MessageSaIS0_EEE_clES4_
FNDA:1,_ZL20DOCTEST_ANON_FUNC_39v
FNDA:2,_ZZL20DOCTEST_ANON_FUNC_39vENKUlRKSt6vectorI7MessageSaIS0_EEE_clES4_
FNF:6
FNH:6
DA:12,3
DA:13,3
DA:14,3
DA:15,9
DA:16,3
DA:17,3
DA:18,3
DA:19,3
DA:20,3
DA:21,1
DA:23,3
DA:24,3
DA:25,1
DA:27,1
DA:29,3
DA:30,3
DA:31,1
DA:33,3
DA:34,3
DA:35,6
DA:36,3
DA:38,1
DA:39,1
DA:40,1
DA:41,2
DA:42,1
DA:43,1
DA:44,1
DA:45,1
DA:46,1
DA:47,1
DA:48,3
DA:49,2
DA:50,1
DA:53,1
DA:55,1
DA:56,1
DA:57,2
DA:58,1
DA:60,1
DA:61,1
DA:62,1
DA:63,3
DA:64,1
DA:65,1
DA:66,1
DA:67,1
DA:68,1
DA:69,1
DA:71,1
DA:73,1
DA:74,1
DA:75,2
DA:76,1
LF:54
LH:54
end_of_record
TN:
SF:/home/gius/git/llama-cli/src/repl/options_it.cpp
FN:102,102,_ZZL20DOCTEST_ANON_FUNC_49vENKUlRKSt6vectorI7MessageSaIS0_EEE_clES4_
FN:12,28,_ZL20DOCTEST_ANON_FUNC_27v
FN:14,14,_ZZL20DOCTEST_ANON_FUNC_27vENKUlRKSt6vectorI7MessageSaIS0_EEE_clES4_
FN:30,46,_ZL20DOCTEST_ANON_FUNC_31v
FN:32,32,_ZZL20DOCTEST_ANON_FUNC_31vENKUlRKSt6vectorI7MessageSaIS0_EEE_clES4_
FN:48,60,_ZL20DOCTEST_ANON_FUNC_35v
FN:50,50,_ZZL20DOCTEST_ANON_FUNC_35vENKUlRKSt6vectorI7MessageSaIS0_EEE_clES4_
FN:62,80,_ZL20DOCTEST_ANON_FUNC_39v
FN:65,65,_ZZL20DOCTEST_ANON_FUNC_39vENKUlRKSt6vectorI7MessageSaIS0_EEE_clES4_
FN:82,96,_ZL20DOCTEST_ANON_FUNC_45v
FN:86,86,_ZZL20DOCTEST_ANON_FUNC_45vENKUlRKSt6vectorI7MessageSaIS0_EEE_clES4_
FN:98,112,_ZL20DOCTEST_ANON_FUNC_49v
FNDA:0,_ZZL20DOCTEST_ANON_FUNC_49vENKUlRKSt6vectorI7MessageSaIS0_EEE_clES4_
FNDA:1,_ZL20DOCTEST_ANON_FUNC_27v
FNDA:0,_ZZL20DOCTEST_ANON_FUNC_27vENKUlRKSt6vectorI7MessageSaIS0_EEE_clES4_
FNDA:1,_ZL20DOCTEST_ANON_FUNC_31v
FNDA:0,_ZZL20DOCTEST_ANON_FUNC_31vENKUlRKSt6vectorI7MessageSaIS0_EEE_clES4_
FNDA:1,_ZL20DOCTEST_ANON_FUNC_35v
FNDA:0,_ZZL20DOCTEST_ANON_FUNC_35vENKUlRKSt6vectorI7MessageSaIS0_EEE_clES4_
FNDA:2,_ZL20DOCTEST_ANON_FUNC_39v
FNDA:2,_ZZL20DOCTEST_ANON_FUNC_39vENKUlRKSt6vectorI7MessageSaIS0_EEE_clES4_
FNDA:1,_ZL20DOCTEST_ANON_FUNC_45v
FNDA:0,_ZZL20DOCTEST_ANON_FUNC_45vENKUlRKSt6vectorI7MessageSaIS0_EEE_clES4_
FNDA:1,_ZL20DOCTEST_ANON_FUNC_49v
FNF:12
FNH:7
DA:12,1
DA:13,1
DA:14,1
DA:15,1
DA:16,1
DA:17,1
DA:18,1
DA:19,1
DA:20,1
DA:22,1
DA:24,1
DA:26,1
DA:27,1
DA:28,1
DA:30,1
DA:31,1
DA:32,1
DA:33,1
DA:34,1
DA:35,1
DA:36,1
DA:37,1
DA:38,1
DA:39,1
DA:40,1
DA:42,1
DA:44,1
DA:45,1
DA:46,1
DA:48,1
DA:49,1
DA:50,1
DA:51,1
DA:52,1
DA:53,1
DA:54,1
DA:55,1
DA:56,1
DA:58,1
DA:59,1
DA:60,1
DA:62,2
DA:63,2
DA:64,2
DA:65,4
DA:66,2
DA:67,2
DA:68,2
DA:69,2
DA:70,2
DA:71,1
DA:73,2
DA:74,2
DA:75,1
DA:77,2
DA:78,2
DA:79,4
DA:80,2
DA:82,1
DA:83,1
DA:84,1
DA:85,1
DA:86,1
DA:87,1
DA:88,1
DA:89,1
DA:90,1
DA:91,1
DA:92,1
DA:94,1
DA:95,1
DA:96,1
DA:98,1
DA:99,1
DA:100,1
DA:101,1
DA:102,1
DA:103,1
DA:104,1
DA:105,1
DA:106,1
DA:107,1
DA:108,1
DA:110,1
DA:111,1
DA:112,1
LF:86
LH:86
end_of_record
TN:
SF:/home/gius/git/llama-cli/src/repl/repl.cpp
FN:120,130,_ZL10handle_setRKNSt7__cxx1112basic_stringIcSt11char_traitsIcESaIcEEER9ReplState
FN:143,187,_ZL22handle_model_selectionR9ReplState
FN:206,222,_ZL14handle_commandRK11ParsedInputR9ReplState
FN:230,236,_ZL9read_fileRKNSt7__cxx1112basic_stringIcSt11char_traitsIcESaIcEEE
FN:240,246,_ZL14emit_diff_lineRSoPKcS1_RKNSt7__cxx1112basic_stringIcSt11char_traitsIcESaIcEEEb
FN:255,286,_ZL9show_diffRKNSt7__cxx1112basic_stringIcSt11char_traitsIcESaIcEEES6_RSob
FN:257,265,_ZZL9show_diffRKNSt7__cxx1112basic_stringIcSt11char_traitsIcESaIcEEES6_RSobENKUlS6_E_clES6_
FN:297,325,_ZL13confirm_writeRK11WriteActionRSiRSob
FN:341,361,_ZL13process_writeRK11WriteActionRSiRSob
FN:366,403,_ZL19process_str_replaceRK16StrReplaceActionRSiRSob
FN:414,461,_ZL12process_readRK10ReadActionRSob
FN:42,42,_ZL14sigint_handleri
FN:473,491,_ZL22parse_exec_annotationsRKNSt7__cxx1112basic_stringIcSt11char_traitsIcESaIcEEE
FN:505,522,_ZL22strip_exec_annotationsRKNSt7__cxx1112basic_stringIcSt11char_traitsIcESaIcEEE
FN:527,540,_ZL12confirm_execRKNSt7__cxx1112basic_stringIcSt11char_traitsIcESaIcEEERK6ConfigRSiRSo
FN:557,598,_ZL15handle_responseRKNSt7__cxx1112basic_stringIcSt11char_traitsIcESaIcEEER9ReplState
FN:60,68,_ZL11get_versionv
FN:616,633,_ZL9read_lineRSiRSoRNSt7__cxx1112basic_stringIcSt11char_traitsIcESaIcEEEb
FN:650,659,_ZL8run_execRKNSt7__cxx1112basic_stringIcSt11char_traitsIcESaIcEEEbR9ReplState
FN:666,682,_ZL18interruptible_chatR9ReplState
FN:669,672,_ZZL18interruptible_chatR9ReplStateENKUlvE_clEv
FN:687,694,_ZL17chat_with_spinnerR9ReplState
FN:711,739,_ZL11send_promptRKNSt7__cxx1112basic_stringIcSt11char_traitsIcESaIcEEER9ReplState
FN:72,78,_ZL12show_optionsR9ReplState
FN:753,772,_ZL8dispatchRKNSt7__cxx1112basic_stringIcSt11char_traitsIcESaIcEEER9ReplState
FN:776,794,_Z8run_replSt8functionIFNSt7__cxx1112basic_stringIcSt11char_traitsIcESaIcEEERKSt6vectorI7MessageSaIS7_EEEERK6ConfigRSiRSo
FN:82,106,_ZL13toggle_optionRKNSt7__cxx1112basic_stringIcSt11char_traitsIcESaIcEEER9ReplState
FNDA:15,_ZL10handle_setRKNSt7__cxx1112basic_stringIcSt11char_traitsIcESaIcEEER9ReplState
FNDA:3,_ZL22handle_model_selectionR9ReplState
FNDA:32,_ZL14handle_commandRK11ParsedInputR9ReplState
FNDA:32,_ZL9read_fileRKNSt7__cxx1112basic_stringIcSt11char_traitsIcESaIcEEE
FNDA:10,_ZL14emit_diff_lineRSoPKcS1_RKNSt7__cxx1112basic_stringIcSt11char_traitsIcESaIcEEEb
FNDA:5,_ZL9show_diffRKNSt7__cxx1112basic_stringIcSt11char_traitsIcESaIcEEES6_RSob
FNDA:10,_ZZL9show_diffRKNSt7__cxx1112basic_stringIcSt11char_traitsIcESaIcEEES6_RSobENKUlS6_E_clES6_
FNDA:16,_ZL13confirm_writeRK11WriteActionRSiRSob
FNDA:16,_ZL13process_writeRK11WriteActionRSiRSob
FNDA:2,_ZL19process_str_replaceRK16StrReplaceActionRSiRSob
FNDA:2,_ZL12process_readRK10ReadActionRSob
FNDA:0,_ZL14sigint_handleri
FNDA:58,_ZL22parse_exec_annotationsRKNSt7__cxx1112basic_stringIcSt11char_traitsIcESaIcEEE
FNDA:27,_ZL22strip_exec_annotationsRKNSt7__cxx1112basic_stringIcSt11char_traitsIcESaIcEEE
FNDA:7,_ZL12confirm_execRKNSt7__cxx1112basic_stringIcSt11char_traitsIcESaIcEEERK6ConfigRSiRSo
FNDA:58,_ZL15handle_responseRKNSt7__cxx1112basic_stringIcSt11char_traitsIcESaIcEEER9ReplState
FNDA:4,_ZL11get_versionv
FNDA:182,_ZL9read_lineRSiRSoRNSt7__cxx1112basic_stringIcSt11char_traitsIcESaIcEEEb
FNDA:8,_ZL8run_execRKNSt7__cxx1112basic_stringIcSt11char_traitsIcESaIcEEEbR9ReplState
FNDA:64,_ZL18interruptible_chatR9ReplState
FNDA:64,_ZZL18interruptible_chatR9ReplStateENKUlvE_clEv
FNDA:64,_ZL17chat_with_spinnerR9ReplState
FNDA:58,_ZL11send_promptRKNSt7__cxx1112basic_stringIcSt11char_traitsIcESaIcEEER9ReplState
FNDA:5,_ZL12show_optionsR9ReplState
FNDA:175,_ZL8dispatchRKNSt7__cxx1112basic_stringIcSt11char_traitsIcESaIcEEER9ReplState
FNDA:78,_Z8run_replSt8functionIFNSt7__cxx1112basic_stringIcSt11char_traitsIcESaIcEEERKSt6vectorI7MessageSaIS7_EEEERK6ConfigRSiRSo
FNDA:10,_ZL13toggle_optionRKNSt7__cxx1112basic_stringIcSt11char_traitsIcESaIcEEER9ReplState
FNF:27
FNH:26
DA:42,0
DA:60,4
DA:61,4
DA:63,4
DA:64,4
DA:66,4
DA:67,4
DA:68,0
DA:72,5
DA:73,5
DA:74,5
DA:75,5
DA:76,5
DA:77,5
DA:78,5
DA:82,10
DA:93,10
DA:94,0
DA:95,0
DA:96,0
DA:98,21
DA:99,19
DA:100,8
DA:101,8
DA:102,8
DA:105,2
DA:120,15
DA:121,15
DA:122,5
DA:123,5
DA:125,10
DA:126,10
DA:127,10
DA:128,2
DA:130,10
DA:143,3
DA:145,3
DA:147,3
DA:148,3
DA:149,3
DA:153,0
DA:154,0
DA:155,0
DA:159,0
DA:160,0
DA:162,0
DA:163,0
DA:164,0
DA:165,0
DA:169,0
DA:171,0
DA:172,0
DA:173,0
DA:174,0
DA:175,0
DA:178,0
DA:179,0
DA:180,0
DA:184,0
DA:185,0
DA:186,0
DA:187,3
DA:206,32
DA:207,32
DA:208,2
DA:209,2
DA:210,30
DA:211,15
DA:212,15
DA:213,3
DA:214,12
DA:215,4
DA:216,8
DA:217,5
DA:219,3
DA:221,32
DA:230,32
DA:231,32
DA:232,32
DA:233,44
DA:235,10
DA:236,32
DA:240,10
DA:241,10
DA:242,0
DA:244,10
DA:246,10
DA:255,5
DA:257,10
DA:258,10
DA:259,10
DA:260,10
DA:261,28
DA:262,18
DA:264,20
DA:265,10
DA:266,5
DA:267,5
DA:269,5
DA:270,5
DA:272,19
DA:273,14
DA:274,14
DA:275,5
DA:276,5
DA:277,5
DA:278,5
DA:279,5
DA:280,5
DA:281,4
DA:282,4
DA:283,4
DA:285,5
DA:286,5
DA:297,16
DA:298,16
DA:299,16
DA:300,16
DA:303,16
DA:304,3
DA:306,13
DA:309,16
DA:310,16
DA:311,16
DA:312,20
DA:313,20
DA:314,12
DA:316,8
DA:317,4
DA:319,4
DA:320,4
DA:322,4
DA:324,0
DA:325,16
DA:341,16
DA:342,16
DA:344,12
DA:345,12
DA:346,3
DA:347,3
DA:348,3
DA:350,3
DA:351,12
DA:352,12
DA:353,12
DA:354,12
DA:356,0
DA:358,12
DA:359,4
DA:361,16
DA:366,2
DA:367,2
DA:368,2
DA:369,0
DA:370,0
DA:372,2
DA:373,2
DA:374,0
DA:375,0
DA:379,2
DA:380,2
DA:381,2
DA:382,2
DA:384,2
DA:385,2
DA:386,2
DA:387,1
DA:388,1
DA:393,1
DA:394,1
DA:395,1
DA:396,1
DA:397,1
DA:398,1
DA:399,1
DA:401,0
DA:403,5
DA:414,2
DA:415,2
DA:416,2
DA:417,0
DA:418,0
DA:420,2
DA:423,2
DA:424,2
DA:425,2
DA:426,12
DA:427,10
DA:430,2
DA:431,2
DA:433,2
DA:435,0
DA:436,0
DA:437,0
DA:438,0
DA:439,0
DA:440,0
DA:441,0
DA:443,0
DA:446,2
DA:448,2
DA:449,2
DA:450,2
DA:451,8
DA:452,6
DA:454,2
DA:456,0
DA:459,2
DA:460,2
DA:461,2
DA:473,58
DA:474,58
DA:475,116
DA:476,58
DA:477,58
DA:478,65
DA:479,58
DA:480,58
DA:481,51
DA:483,7
DA:484,7
DA:485,0
DA:487,7
DA:488,7
DA:490,116
DA:491,58
DA:505,27
DA:506,27
DA:507,54
DA:508,54
DA:510,34
DA:511,34
DA:512,27
DA:514,7
DA:515,7
DA:516,0
DA:518,7
DA:519,7
DA:520,7
DA:521,54
DA:522,27
DA:527,7
DA:528,7
DA:529,7
DA:530,7
DA:531,0
DA:533,7
DA:534,3
DA:535,6
DA:537,4
DA:538,4
DA:539,4
DA:540,7
DA:557,58
DA:558,58
DA:559,58
DA:560,58
DA:561,58
DA:563,58
DA:564,31
DA:565,31
DA:569,27
DA:571,43
DA:572,16
DA:574,29
DA:575,2
DA:577,27
DA:578,27
DA:579,29
DA:580,2
DA:581,2
DA:582,0
DA:584,2
DA:585,2
DA:586,4
DA:587,2
DA:589,2
DA:590,34
DA:591,7
DA:592,7
DA:593,12
DA:594,4
DA:596,7
DA:597,27
DA:598,74
DA:616,182
DA:618,182
DA:619,182
DA:622,0
DA:623,0
DA:626,0
DA:627,0
DA:628,0
DA:629,0
DA:631,0
DA:632,0
DA:633,0
DA:650,8
DA:651,8
DA:652,8
DA:653,8
DA:654,0
DA:656,8
DA:657,12
DA:659,16
DA:666,64
DA:667,64
DA:668,64
DA:669,0
DA:670,64
DA:671,64
DA:672,128
DA:673,128
DA:674,64
DA:676,64
DA:677,64
DA:678,64
DA:680,0
DA:681,0
DA:682,64
DA:687,64
DA:688,64
DA:689,64
DA:690,64
DA:691,64
DA:692,64
DA:693,128
DA:694,64
DA:711,58
DA:713,58
DA:714,0
DA:717,116
DA:718,58
DA:719,58
DA:720,0
DA:721,0
DA:722,0
DA:723,0
DA:725,116
DA:726,116
DA:727,58
DA:729,58
DA:730,6
DA:731,6
DA:732,6
DA:733,12
DA:735,0
DA:736,0
DA:738,6
DA:739,302
DA:753,175
DA:754,175
DA:755,175
DA:756,77
DA:758,98
DA:759,32
DA:760,32
DA:762,66
DA:763,4
DA:764,4
DA:766,62
DA:767,4
DA:768,4
DA:770,58
DA:771,58
DA:772,175
DA:776,78
DA:777,78
DA:778,78
DA:779,78
DA:780,1
DA:782,78
DA:783,78
DA:785,182
DA:786,181
DA:787,6
DA:789,175
DA:790,77
DA:793,78
DA:794,80
LF:380
LH:311
end_of_record
TN:
SF:/home/gius/git/llama-cli/src/repl/repl_test.cpp
FN:103,145,_ZL20DOCTEST_ANON_FUNC_46v
FN:106,117,_ZZL20DOCTEST_ANON_FUNC_46vENKUlRKSt6vectorI7MessageSaIS0_EEE_clES4_
FN:130,136,_ZZL20DOCTEST_ANON_FUNC_46vENKUlRKSt6vectorI7MessageSaIS0_EEE0_clES4_
FN:147,194,_ZL20DOCTEST_ANON_FUNC_53v
FN:167,171,_ZZL20DOCTEST_ANON_FUNC_53vENKUlRKSt6vectorI7MessageSaIS0_EEE_clES4_
FN:17,17,_ZL9echo_chatRKSt6vectorI7MessageSaIS0_EE
FN:196,266,_ZL20DOCTEST_ANON_FUNC_65v
FN:198,201,_ZZL20DOCTEST_ANON_FUNC_65vENKUlRKSt6vectorI7MessageSaIS0_EEE_clES4_
FN:20,24,_ZL8test_cfgv
FN:26,101,_ZL20DOCTEST_ANON_FUNC_27v
FN:268,340,_ZL20DOCTEST_ANON_FUNC_81v
FN:287,299,_ZZL20DOCTEST_ANON_FUNC_81vENKUlRKSt6vectorI7MessageSaIS0_EEE_clES4_
FN:312,312,_ZZL20DOCTEST_ANON_FUNC_81vENKUlRKSt6vectorI7MessageSaIS0_EEE0_clES4_
FN:329,329,_ZZL20DOCTEST_ANON_FUNC_81vENKUlRKSt6vectorI7MessageSaIS0_EEE1_clES4_
FN:342,406,_ZL20DOCTEST_ANON_FUNC_97v
FN:408,420,_ZL21DOCTEST_ANON_FUNC_114v
FN:422,435,_ZL21DOCTEST_ANON_FUNC_119v
FNDA:2,_ZL20DOCTEST_ANON_FUNC_46v
FNDA:2,_ZZL20DOCTEST_ANON_FUNC_46vENKUlRKSt6vectorI7MessageSaIS0_EEE_clES4_
FNDA:1,_ZZL20DOCTEST_ANON_FUNC_46vENKUlRKSt6vectorI7MessageSaIS0_EEE0_clES4_
FNDA:4,_ZL20DOCTEST_ANON_FUNC_53v
FNDA:2,_ZZL20DOCTEST_ANON_FUNC_53vENKUlRKSt6vectorI7MessageSaIS0_EEE_clES4_
FNDA:10,_ZL9echo_chatRKSt6vectorI7MessageSaIS0_EE
FNDA:8,_ZL20DOCTEST_ANON_FUNC_65v
FNDA:8,_ZZL20DOCTEST_ANON_FUNC_65vENKUlRKSt6vectorI7MessageSaIS0_EEE_clES4_
FNDA:34,_ZL8test_cfgv
FNDA:8,_ZL20DOCTEST_ANON_FUNC_27v
FNDA:6,_ZL20DOCTEST_ANON_FUNC_81v
FNDA:1,_ZZL20DOCTEST_ANON_FUNC_81vENKUlRKSt6vectorI7MessageSaIS0_EEE_clES4_
FNDA:4,_ZZL20DOCTEST_ANON_FUNC_81vENKUlRKSt6vectorI7MessageSaIS0_EEE0_clES4_
FNDA:1,_ZZL20DOCTEST_ANON_FUNC_81vENKUlRKSt6vectorI7MessageSaIS0_EEE1_clES4_
FNDA:5,_ZL20DOCTEST_ANON_FUNC_97v
FNDA:1,_ZL21DOCTEST_ANON_FUNC_114v
FNDA:1,_ZL21DOCTEST_ANON_FUNC_119v
FNF:17
FNH:17
DA:17,10
DA:20,34
DA:21,34
DA:22,34
DA:23,34
DA:24,0
DA:26,8
DA:27,8
DA:28,2
DA:29,2
DA:30,2
DA:31,2
DA:32,2
DA:33,1
DA:35,2
DA:36,2
DA:37,1
DA:39,2
DA:40,2
DA:41,10
DA:43,8
DA:44,1
DA:45,1
DA:46,1
DA:47,1
DA:48,1
DA:49,1
DA:51,1
DA:52,1
DA:53,9
DA:55,8
DA:56,1
DA:57,1
DA:58,1
DA:59,1
DA:61,1
DA:62,9
DA:64,8
DA:65,1
DA:66,1
DA:67,1
DA:68,1
DA:70,1
DA:71,9
DA:73,8
DA:74,2
DA:75,2
DA:76,2
DA:77,2
DA:78,2
DA:79,1
DA:81,2
DA:82,2
DA:83,1
DA:85,1
DA:87,1
DA:89,2
DA:90,2
DA:91,10
DA:93,8
DA:94,1
DA:95,1
DA:96,1
DA:97,1
DA:99,1
DA:100,9
DA:101,8
DA:103,2
DA:104,2
DA:105,1
DA:106,2
DA:107,2
DA:108,2
DA:109,1
DA:112,2
DA:113,1
DA:116,2
DA:117,1
DA:118,1
DA:119,1
DA:120,1
DA:121,1
DA:122,1
DA:123,1
DA:125,1
DA:126,1
DA:127,3
DA:129,2
DA:130,1
DA:131,1
DA:133,1
DA:135,1
DA:137,1
DA:138,1
DA:139,1
DA:140,1
DA:141,1
DA:142,1
DA:143,2
DA:144,3
DA:145,2
DA:147,4
DA:148,4
DA:149,2
DA:150,2
DA:151,2
DA:152,2
DA:153,2
DA:154,1
DA:156,2
DA:157,2
DA:158,1
DA:160,1
DA:162,2
DA:163,2
DA:164,6
DA:166,4
DA:167,2
DA:168,2
DA:170,2
DA:172,1
DA:173,1
DA:174,1
DA:175,1
DA:176,1
DA:177,1
DA:179,1
DA:180,1
DA:181,5
DA:183,4
DA:184,1
DA:185,1
DA:186,1
DA:187,1
DA:188,1
DA:189,1
DA:191,1
DA:192,1
DA:193,5
DA:194,4
DA:196,8
DA:198,8
DA:200,8
DA:203,8
DA:204,4
DA:205,4
DA:206,4
DA:207,4
DA:208,4
DA:209,1
DA:211,4
DA:212,4
DA:213,1
DA:215,4
DA:216,4
DA:217,1
DA:218,1
DA:220,1
DA:221,1
DA:222,1
DA:224,5
DA:225,4
DA:226,1
DA:228,4
DA:229,4
DA:230,4
DA:231,12
DA:233,8
DA:234,2
DA:235,2
DA:236,2
DA:237,2
DA:238,2
DA:239,1
DA:240,1
DA:242,3
DA:243,2
DA:244,1
DA:246,2
DA:247,2
DA:248,10
DA:250,8
DA:251,2
DA:252,2
DA:253,2
DA:254,2
DA:255,2
DA:256,1
DA:258,2
DA:259,2
DA:260,1
DA:262,2
DA:263,2
DA:264,2
DA:265,10
DA:266,8
DA:268,6
DA:269,6
DA:270,2
DA:271,2
DA:272,2
DA:273,2
DA:274,2
DA:275,1
DA:277,2
DA:278,2
DA:279,1
DA:281,2
DA:282,2
DA:283,8
DA:285,6
DA:286,1
DA:287,1
DA:288,1
DA:290,1
DA:291,3
DA:292,2
DA:293,1
DA:296,1
DA:298,1
DA:299,1
DA:300,1
DA:301,1
DA:302,1
DA:303,1
DA:304,1
DA:305,1
DA:307,1
DA:308,1
DA:309,7
DA:311,6
DA:312,4
DA:313,2
DA:314,2
DA:315,2
DA:316,2
DA:317,2
DA:318,1
DA:320,2
DA:321,2
DA:322,1
DA:324,2
DA:325,2
DA:326,8
DA:328,6
DA:329,1
DA:330,1
DA:331,1
DA:332,1
DA:333,1
DA:334,1
DA:335,1
DA:337,1
DA:338,1
DA:339,7
DA:340,6
DA:342,5
DA:343,5
DA:344,1
DA:345,1
DA:346,1
DA:347,1
DA:348,1
DA:349,1
DA:351,1
DA:353,1
DA:355,1
DA:356,1
DA:357,6
DA:359,5
DA:360,1
DA:361,1
DA:362,1
DA:363,1
DA:364,1
DA:365,1
DA:367,1
DA:368,1
DA:369,6
DA:371,5
DA:372,1
DA:373,1
DA:374,1
DA:375,1
DA:376,1
DA:377,1
DA:379,1
DA:380,1
DA:381,6
DA:383,5
DA:384,1
DA:385,1
DA:386,1
DA:387,1
DA:388,1
DA:389,1
DA:391,1
DA:392,1
DA:393,6
DA:395,5
DA:396,1
DA:397,1
DA:398,1
DA:399,1
DA:400,1
DA:401,1
DA:403,1
DA:404,1
DA:405,6
DA:406,5
DA:408,1
DA:409,1
DA:410,1
DA:411,1
DA:412,1
DA:413,1
DA:414,1
DA:415,1
DA:417,1
DA:418,1
DA:419,2
DA:420,1
DA:422,1
DA:423,1
DA:425,1
DA:426,1
DA:427,1
DA:428,1
DA:429,1
DA:430,1
DA:432,1
DA:433,1
DA:434,2
DA:435,1
LF:334
LH:333
end_of_record
TN:
SF:/home/gius/git/llama-cli/src/test_helpers.h
FN:21,28,_ZN7MockLLMclB5cxx11ERKSt6vectorI7MessageSaIS1_EE
FN:32,36,_Z8test_cfgv
FNDA:14,_ZN7MockLLMclB5cxx11ERKSt6vectorI7MessageSaIS1_EE
FNDA:43,_Z8test_cfgv
FNF:2
FNH:2
DA:21,14
DA:22,14
DA:23,14
DA:24,14
DA:25,0
DA:27,14
DA:32,43
DA:33,43
DA:34,43
DA:35,43
DA:36,0
LF:11
LH:9
end_of_record
TN:
SF:/home/gius/git/llama-cli/src/trace/trace.cpp
FN:16,35,_ZN11StderrTrace3logEPKcz
FN:37,47,_ZN14CapturingTrace3logEPKcz
FNDA:0,_ZN11StderrTrace3logEPKcz
FNDA:3,_ZN14CapturingTrace3logEPKcz
FNF:2
FNH:1
DA:16,0
DA:18,0
DA:20,0
DA:22,0
DA:24,0
DA:25,0
DA:31,0
DA:33,0
DA:34,0
DA:35,0
DA:37,3
DA:42,3
DA:44,3
DA:45,3
DA:46,6
DA:47,3
LF:16
LH:6
end_of_record
TN:
SF:/home/gius/git/llama-cli/src/trace/trace.h
FN:39,39,_ZN5TraceD0Ev
FN:39,39,_ZN5TraceD2Ev
FNDA:0,_ZN5TraceD0Ev
FNDA:9,_ZN5TraceD2Ev
FNF:2
FNH:1
DA:39,9
LF:1
LH:1
end_of_record
TN:
SF:/home/gius/git/llama-cli/src/trace/trace_test.cpp
FN:10,35,_ZL20DOCTEST_ANON_FUNC_27v
FN:37,44,_ZL20DOCTEST_ANON_FUNC_34v
FNDA:2,_ZL20DOCTEST_ANON_FUNC_27v
FNDA:1,_ZL20DOCTEST_ANON_FUNC_34v
FNF:2
FNH:2
DA:10,2
DA:11,2
DA:12,2
DA:13,2
DA:14,1
DA:15,1
DA:16,1
DA:18,1
DA:20,1
DA:21,2
DA:22,2
DA:23,1
DA:24,1
DA:25,1
DA:26,1
DA:28,1
DA:30,1
DA:32,1
DA:33,2
DA:34,4
DA:35,2
DA:37,1
DA:38,1
DA:39,1
DA:40,1
DA:42,1
DA:43,1
DA:44,1
LF:28
LH:28
end_of_record
TN:
SF:/home/gius/git/llama-cli/src/tui/markdown_it.cpp
FN:13,29,_ZL20DOCTEST_ANON_FUNC_27v
FN:15,15,_ZZL20DOCTEST_ANON_FUNC_27vENKUlRKSt6vectorI7MessageSaIS0_EEE_clES4_
FN:31,102,_ZL20DOCTEST_ANON_FUNC_32v
FNDA:1,_ZL20DOCTEST_ANON_FUNC_27v
FNDA:1,_ZZL20DOCTEST_ANON_FUNC_27vENKUlRKSt6vectorI7MessageSaIS0_EEE_clES4_
FNDA:8,_ZL20DOCTEST_ANON_FUNC_32v
FNF:3
FNH:3
DA:13,1
DA:14,1
DA:15,1
DA:17,1
DA:18,1
DA:19,1
DA:20,1
DA:21,1
DA:22,1
DA:24,1
DA:26,1
DA:27,2
DA:28,1
DA:29,1
DA:31,8
DA:32,8
DA:33,7
DA:34,1
DA:35,1
DA:36,1
DA:38,1
DA:40,1
DA:41,8
DA:42,7
DA:43,1
DA:44,1
DA:45,1
DA:47,1
DA:49,1
DA:50,8
DA:51,7
DA:52,1
DA:53,1
DA:54,1
DA:56,1
DA:58,1
DA:59,8
DA:60,7
DA:61,1
DA:62,1
DA:63,1
DA:65,1
DA:67,1
DA:68,8
DA:69,7
DA:70,1
DA:71,1
DA:72,1
DA:74,1
DA:76,1
DA:77,8
DA:78,7
DA:79,1
DA:80,1
DA:81,1
DA:83,1
DA:84,8
DA:85,7
DA:86,1
DA:87,1
DA:88,1
DA:90,1
DA:91,8
DA:92,8
DA:93,8
DA:94,1
DA:95,1
DA:96,1
DA:97,1
DA:99,1
DA:100,2
DA:101,8
DA:102,8
LF:73
LH:73
end_of_record
TN:
SF:/home/gius/git/llama-cli/src/tui/tui.h
FN:111,130,_ZN3tui13render_inlineERKNSt7__cxx1112basic_stringIcSt11char_traitsIcESaIcEEEb
FN:135,144,_ZN3tui11try_headingERKNSt7__cxx1112basic_stringIcSt11char_traitsIcESaIcEEE
FN:147,160,_ZN3tui8try_listERKNSt7__cxx1112basic_stringIcSt11char_traitsIcESaIcEEEb
FN:163,173,_ZN3tui11render_lineERKNSt7__cxx1112basic_stringIcSt11char_traitsIcESaIcEEEb
FN:185,191,_ZN3tui22render_code_block_lineERKNSt7__cxx1112basic_stringIcSt11char_traitsIcESaIcEEERb
FN:208,223,_ZN3tui12render_linesERKNSt7__cxx1112basic_stringIcSt11char_traitsIcESaIcEEEb
FN:22,30,_ZN3tui9use_colorEb
FN:227,236,_ZN3tui15render_markdownERKNSt7__cxx1112basic_stringIcSt11char_traitsIcESaIcEEEb
FN:241,241,_ZN3tui16default_messagesEv
FN:244,252,_ZN3tui13bofh_messagesEv
FN:262,267,_ZN7SpinnerC2ERSobSt6vectorIPKcSaIS3_EE
FN:265,265,_ZZN7SpinnerC4ERSobSt6vectorIPKcSaIS3_EEENKUlvE_clEv
FN:268,274,_ZN7SpinnerD2Ev
FN:279,291,_ZN7Spinner3runEv
FN:41,43,_ZN3tui5errorERSobRKNSt7__cxx1112basic_stringIcSt11char_traitsIcESaIcEEE
FN:46,48,_ZN3tui10cmd_outputERSobRKNSt7__cxx1112basic_stringIcSt11char_traitsIcESaIcEEE
FN:60,71,_ZN3tui8try_boldERKNSt7__cxx1112basic_stringIcSt11char_traitsIcESaIcEEERmRS5_
FN:76,90,_ZN3tui10try_italicERKNSt7__cxx1112basic_stringIcSt11char_traitsIcESaIcEEERmRS5_
FN:95,106,_ZN3tui8try_codeERKNSt7__cxx1112basic_stringIcSt11char_traitsIcESaIcEEERmRS5_
FNDA:7,_ZN3tui13render_inlineERKNSt7__cxx1112basic_stringIcSt11char_traitsIcESaIcEEEb
FNDA:8,_ZN3tui11try_headingERKNSt7__cxx1112basic_stringIcSt11char_traitsIcESaIcEEE
FNDA:7,_ZN3tui8try_listERKNSt7__cxx1112basic_stringIcSt11char_traitsIcESaIcEEEb
FNDA:8,_ZN3tui11render_lineERKNSt7__cxx1112basic_stringIcSt11char_traitsIcESaIcEEEb
FNDA:3,_ZN3tui22render_code_block_lineERKNSt7__cxx1112basic_stringIcSt11char_traitsIcESaIcEEERb
FNDA:7,_ZN3tui12render_linesERKNSt7__cxx1112basic_stringIcSt11char_traitsIcESaIcEEEb
FNDA:78,_ZN3tui9use_colorEb
FNDA:72,_ZN3tui15render_markdownERKNSt7__cxx1112basic_stringIcSt11char_traitsIcESaIcEEEb
FNDA:64,_ZN3tui16default_messagesEv
FNDA:0,_ZN3tui13bofh_messagesEv
FNDA:64,_ZN7SpinnerC2ERSobSt6vectorIPKcSaIS3_EE
FNDA:0,_ZZN7SpinnerC4ERSobSt6vectorIPKcSaIS3_EEENKUlvE_clEv
FNDA:64,_ZN7SpinnerD2Ev
FNDA:0,_ZN7Spinner3runEv
FNDA:0,_ZN3tui5errorERSobRKNSt7__cxx1112basic_stringIcSt11char_traitsIcESaIcEEE
FNDA:8,_ZN3tui10cmd_outputERSobRKNSt7__cxx1112basic_stringIcSt11char_traitsIcESaIcEEE
FNDA:30,_ZN3tui8try_boldERKNSt7__cxx1112basic_stringIcSt11char_traitsIcESaIcEEERmRS5_
FNDA:29,_ZN3tui10try_italicERKNSt7__cxx1112basic_stringIcSt11char_traitsIcESaIcEEERmRS5_
FNDA:28,_ZN3tui8try_codeERKNSt7__cxx1112basic_stringIcSt11char_traitsIcESaIcEEERmRS5_
FNF:19
FNH:15
DA:22,78
DA:23,78
DA:24,2
DA:26,76
DA:27,0
DA:29,76
DA:41,0
DA:42,0
DA:43,0
DA:46,8
DA:47,8
DA:48,8
DA:60,30
DA:61,30
DA:62,29
DA:64,1
DA:65,1
DA:66,0
DA:68,1
DA:69,1
DA:70,1
DA:76,29
DA:77,29
DA:78,28
DA:80,1
DA:81,0
DA:83,1
DA:84,1
DA:85,0
DA:87,1
DA:88,1
DA:89,1
DA:95,28
DA:96,28
DA:97,27
DA:99,1
DA:100,1
DA:101,0
DA:103,1
DA:104,1
DA:105,1
DA:111,7
DA:112,7
DA:113,0
DA:115,7
DA:116,7
DA:117,37
DA:118,30
DA:119,1
DA:121,29
DA:122,1
DA:124,28
DA:125,1
DA:127,27
DA:129,7
DA:130,7
DA:135,8
DA:136,8
DA:137,14
DA:139,1
DA:140,1
DA:141,0
DA:143,1
DA:147,7
DA:149,7
DA:150,2
DA:153,5
DA:154,2
DA:155,2
DA:156,2
DA:159,6
DA:163,8
DA:164,8
DA:165,8
DA:166,1
DA:168,7
DA:169,7
DA:170,4
DA:172,3
DA:173,8
DA:185,3
DA:186,3
DA:187,2
DA:188,2
DA:190,1
DA:208,7
DA:209,7
DA:210,7
DA:211,7
DA:212,18
DA:213,11
DA:214,11
DA:215,11
DA:216,11
DA:217,3
DA:219,8
DA:221,11
DA:222,14
DA:223,0
DA:227,72
DA:228,72
DA:229,65
DA:231,7
DA:232,7
DA:233,7
DA:235,7
DA:236,7
DA:241,192
DA:244,0
DA:251,0
DA:262,64
DA:263,64
DA:264,64
DA:265,0
DA:267,64
DA:268,64
DA:269,64
DA:270,64
DA:271,0
DA:273,64
DA:274,64
DA:279,0
DA:280,0
DA:281,0
DA:282,0
DA:283,0
DA:284,0
DA:285,0
DA:286,0
DA:287,0
DA:289,0
DA:291,0
LF:132
LH:106
end_of_record
